ccopy_reg
_reconstructor
p0
(cnl_lib.Concepts
Concepts
p1
c__builtin__
object
p2
Ntp3
Rp4
(dp5
S'count'
p6
I1
sS'typeName'
p7
S'Nodes'
p8
sS'name'
p9
S'Node'
p10
sS'cd'
p11
(dp12
S'Accept Deed-in-Lieu Forclosre'
p13
g0
(g1
g2
Ntp14
Rp15
(dp16
g6
I1
sg7
S'Source'
p17
sg9
S'Accept Deed-in-Lieu Forclosre'
p18
sg11
(dp19
S'Member Transfers Title to DVC'
p20
g0
(g1
g2
Ntp21
Rp22
(dp23
g6
I1
sg7
S'Target'
p24
sg9
S'Member Transfers Title to DVC'
p25
sg11
(dp26
S'deed'
p27
g0
(g1
g2
Ntp28
Rp29
(dp30
g6
I1
sg7
S'Word'
p31
sg9
S'deed'
p32
sg11
(dp33
S'NNP'
p34
g0
(g1
g2
Ntp35
Rp36
(dp37
g6
I1
sg7
S'POS'
p38
sg9
S'NNP'
p39
sg11
(dp40
sbssbsS'forclosre'
p41
g0
(g1
g2
Ntp42
Rp43
(dp44
g6
I1
sg7
S'Word'
p45
sg9
S'forclosre'
p46
sg11
(dp47
S'NNP'
p48
g0
(g1
g2
Ntp49
Rp50
(dp51
g6
I1
sg7
S'POS'
p52
sg9
S'NNP'
p53
sg11
(dp54
sbssbsS'accept'
p55
g0
(g1
g2
Ntp56
Rp57
(dp58
g6
I1
sg7
S'Word'
p59
sg9
S'accept'
p60
sg11
(dp61
S'NNP'
p62
g0
(g1
g2
Ntp63
Rp64
(dp65
g6
I1
sg7
S'POS'
p66
sg9
S'NNP'
p67
sg11
(dp68
sbssbsS'lieu'
p69
g0
(g1
g2
Ntp70
Rp71
(dp72
g6
I1
sg7
S'Word'
p73
sg9
S'lieu'
p74
sg11
(dp75
S'NNP'
p76
g0
(g1
g2
Ntp77
Rp78
(dp79
g6
I1
sg7
S'POS'
p80
sg9
S'NNP'
p81
sg11
(dp82
sbssbssbsS'DVC Takes Back Title'
p83
g0
(g1
g2
Ntp84
Rp85
(dp86
g6
I1
sg7
S'Target'
p87
sg9
S'DVC Takes Back Title'
p88
sg11
(dp89
S'deed'
p90
g0
(g1
g2
Ntp91
Rp92
(dp93
g6
I1
sg7
S'Word'
p94
sg9
S'deed'
p95
sg11
(dp96
S'NNP'
p97
g0
(g1
g2
Ntp98
Rp99
(dp100
g6
I1
sg7
S'POS'
p101
sg9
S'NNP'
p102
sg11
(dp103
sbssbsS'forclosre'
p104
g0
(g1
g2
Ntp105
Rp106
(dp107
g6
I1
sg7
S'Word'
p108
sg9
S'forclosre'
p109
sg11
(dp110
S'NNP'
p111
g0
(g1
g2
Ntp112
Rp113
(dp114
g6
I1
sg7
S'POS'
p115
sg9
S'NNP'
p116
sg11
(dp117
sbssbsS'accept'
p118
g0
(g1
g2
Ntp119
Rp120
(dp121
g6
I1
sg7
S'Word'
p122
sg9
S'accept'
p123
sg11
(dp124
S'NNP'
p125
g0
(g1
g2
Ntp126
Rp127
(dp128
g6
I1
sg7
S'POS'
p129
sg9
S'NNP'
p130
sg11
(dp131
sbssbsS'lieu'
p132
g0
(g1
g2
Ntp133
Rp134
(dp135
g6
I1
sg7
S'Word'
p136
sg9
S'lieu'
p137
sg11
(dp138
S'NNP'
p139
g0
(g1
g2
Ntp140
Rp141
(dp142
g6
I1
sg7
S'POS'
p143
sg9
S'NNP'
p144
sg11
(dp145
sbssbssbsS'accept'
p146
g0
(g1
g2
Ntp147
Rp148
(dp149
g6
I1
sg7
S'Word'
p150
sg9
S'accept'
p151
sg11
(dp152
S'NNP'
p153
g0
(g1
g2
Ntp154
Rp155
(dp156
g6
I1
sg7
S'POS'
p157
sg9
S'NNP'
p158
sg11
(dp159
sbssbsS'lieu'
p160
g0
(g1
g2
Ntp161
Rp162
(dp163
g6
I1
sg7
S'Word'
p164
sg9
S'lieu'
p165
sg11
(dp166
S'NNP'
p167
g0
(g1
g2
Ntp168
Rp169
(dp170
g6
I1
sg7
S'POS'
p171
sg9
S'NNP'
p172
sg11
(dp173
sbssbsS'deed'
p174
g0
(g1
g2
Ntp175
Rp176
(dp177
g6
I1
sg7
S'Word'
p178
sg9
S'deed'
p179
sg11
(dp180
S'NNP'
p181
g0
(g1
g2
Ntp182
Rp183
(dp184
g6
I1
sg7
S'POS'
p185
sg9
S'NNP'
p186
sg11
(dp187
sbssbsS'forclosre'
p188
g0
(g1
g2
Ntp189
Rp190
(dp191
g6
I1
sg7
S'Word'
p192
sg9
S'forclosre'
p193
sg11
(dp194
S'NNP'
p195
g0
(g1
g2
Ntp196
Rp197
(dp198
g6
I1
sg7
S'POS'
p199
sg9
S'NNP'
p200
sg11
(dp201
sbssbssbsS'Contract Presentation'
p202
g0
(g1
g2
Ntp203
Rp204
(dp205
g6
I1
sg7
S'Source'
p206
sg9
S'Contract Presentation'
p207
sg11
(dp208
S'presentation'
p209
g0
(g1
g2
Ntp210
Rp211
(dp212
g6
I1
sg7
S'Word'
p213
sg9
S'presentation'
p214
sg11
(dp215
S'NN'
p216
g0
(g1
g2
Ntp217
Rp218
(dp219
g6
I1
sg7
S'POS'
p220
sg9
S'NN'
p221
sg11
(dp222
sbssbsS'contract'
p223
g0
(g1
g2
Ntp224
Rp225
(dp226
g6
I1
sg7
S'Word'
p227
sg9
S'contract'
p228
sg11
(dp229
S'NN'
p230
g0
(g1
g2
Ntp231
Rp232
(dp233
g6
I1
sg7
S'POS'
p234
sg9
S'NN'
p235
sg11
(dp236
sbssbsS'Contract Closing'
p237
g0
(g1
g2
Ntp238
Rp239
(dp240
g6
I1
sg7
S'Source'
p241
sg9
g237
sg11
(dp242
S'closing'
p243
g0
(g1
g2
Ntp244
Rp245
(dp246
g6
I1
sg7
S'Word'
p247
sg9
S'closing'
p248
sg11
(dp249
S'NNP'
p250
g0
(g1
g2
Ntp251
Rp252
(dp253
g6
I1
sg7
S'POS'
p254
sg9
S'NNP'
p255
sg11
(dp256
sbssbsS'Cancel Contract'
p257
g0
(g1
g2
Ntp258
Rp259
(dp260
g6
I1
sg7
S'Target'
p261
sg9
S'Cancel Contract'
p262
sg11
(dp263
S'closing'
p264
g0
(g1
g2
Ntp265
Rp266
(dp267
g6
I1
sg7
S'Word'
p268
sg9
S'closing'
p269
sg11
(dp270
S'NNP'
p271
g0
(g1
g2
Ntp272
Rp273
(dp274
g6
I1
sg7
S'POS'
p275
sg9
S'NNP'
p276
sg11
(dp277
sbssbsS'contract'
p278
g0
(g1
g2
Ntp279
Rp280
(dp281
g6
I1
sg7
S'Word'
p282
sg9
S'contract'
p283
sg11
(dp284
S'NN'
p285
g0
(g1
g2
Ntp286
Rp287
(dp288
g6
I1
sg7
S'POS'
p289
sg9
S'NN'
p290
sg11
(dp291
sbssbssbsS'contract'
p292
g0
(g1
g2
Ntp293
Rp294
(dp295
g6
I1
sg7
S'Word'
p296
sg9
S'contract'
p297
sg11
(dp298
S'NN'
p299
g0
(g1
g2
Ntp300
Rp301
(dp302
g6
I1
sg7
S'POS'
p303
sg9
S'NN'
p304
sg11
(dp305
sbssbssbssbsS'Create Online Username and Password'
p306
g0
(g1
g2
Ntp307
Rp308
(dp309
g6
I1
sg7
S'Source'
p310
sg9
S'Create Online Username and Password'
p311
sg11
(dp312
S'username'
p313
g0
(g1
g2
Ntp314
Rp315
(dp316
g6
I1
sg7
S'Word'
p317
sg9
S'username'
p318
sg11
(dp319
S'NNP'
p320
g0
(g1
g2
Ntp321
Rp322
(dp323
g6
I1
sg7
S'POS'
p324
sg9
S'NNP'
p325
sg11
(dp326
sbssbsS'create'
p327
g0
(g1
g2
Ntp328
Rp329
(dp330
g6
I1
sg7
S'Word'
p331
sg9
S'create'
p332
sg11
(dp333
S'NNP'
p334
g0
(g1
g2
Ntp335
Rp336
(dp337
g6
I1
sg7
S'POS'
p338
sg9
S'NNP'
p339
sg11
(dp340
sbssbsS'password'
p341
g0
(g1
g2
Ntp342
Rp343
(dp344
g6
I1
sg7
S'Word'
p345
sg9
S'password'
p346
sg11
(dp347
S'NNP'
p348
g0
(g1
g2
Ntp349
Rp350
(dp351
g6
I1
sg7
S'POS'
p352
sg9
S'NNP'
p353
sg11
(dp354
sbssbsS'Collect Purchasing Details'
p355
g0
(g1
g2
Ntp356
Rp357
(dp358
g6
I1
sg7
S'Source'
p359
sg9
g355
sg11
(dp360
S'collect'
p361
g0
(g1
g2
Ntp362
Rp363
(dp364
g6
I1
sg7
S'Word'
p365
sg9
S'collect'
p366
sg11
(dp367
S'NNP'
p368
g0
(g1
g2
Ntp369
Rp370
(dp371
g6
I1
sg7
S'POS'
p372
sg9
S'NNP'
p373
sg11
(dp374
sbssbsS'Assign Inventory Freeze to Contract'
p375
g0
(g1
g2
Ntp376
Rp377
(dp378
g6
I1
sg7
S'Source'
p379
sg9
g375
sg11
(dp380
S'Freeze Inventory'
p381
g0
(g1
g2
Ntp382
Rp383
(dp384
g6
I1
sg7
S'Target'
p385
sg9
S'Freeze Inventory'
p386
sg11
(dp387
S'freeze'
p388
g0
(g1
g2
Ntp389
Rp390
(dp391
g6
I1
sg7
S'Word'
p392
sg9
S'freeze'
p393
sg11
(dp394
S'NNP'
p395
g0
(g1
g2
Ntp396
Rp397
(dp398
g6
I1
sg7
S'POS'
p399
sg9
S'NNP'
p400
sg11
(dp401
sbssbsS'assign'
p402
g0
(g1
g2
Ntp403
Rp404
(dp405
g6
I1
sg7
S'Word'
p406
sg9
S'assign'
p407
sg11
(dp408
S'NNP'
p409
g0
(g1
g2
Ntp410
Rp411
(dp412
g6
I1
sg7
S'POS'
p413
sg9
S'NNP'
p414
sg11
(dp415
sbssbsS'contract'
p416
g0
(g1
g2
Ntp417
Rp418
(dp419
g6
I1
sg7
S'Word'
p420
sg9
S'contract'
p421
sg11
(dp422
S'NNP'
p423
g0
(g1
g2
Ntp424
Rp425
(dp426
g6
I1
sg7
S'POS'
p427
sg9
S'NNP'
p428
sg11
(dp429
sbssbsS'inventory'
p430
g0
(g1
g2
Ntp431
Rp432
(dp433
g6
I1
sg7
S'Word'
p434
sg9
S'inventory'
p435
sg11
(dp436
S'NNP'
p437
g0
(g1
g2
Ntp438
Rp439
(dp440
g6
I1
sg7
S'POS'
p441
sg9
S'NNP'
p442
sg11
(dp443
sbssbssbsS'Calculate Contract Details'
p444
g0
(g1
g2
Ntp445
Rp446
(dp447
g6
I1
sg7
S'Target'
p448
sg9
S'Calculate Contract Details'
p449
sg11
(dp450
S'freeze'
p451
g0
(g1
g2
Ntp452
Rp453
(dp454
g6
I1
sg7
S'Word'
p455
sg9
S'freeze'
p456
sg11
(dp457
S'NNP'
p458
g0
(g1
g2
Ntp459
Rp460
(dp461
g6
I1
sg7
S'POS'
p462
sg9
S'NNP'
p463
sg11
(dp464
sbssbsS'assign'
p465
g0
(g1
g2
Ntp466
Rp467
(dp468
g6
I1
sg7
S'Word'
p469
sg9
S'assign'
p470
sg11
(dp471
S'NNP'
p472
g0
(g1
g2
Ntp473
Rp474
(dp475
g6
I1
sg7
S'POS'
p476
sg9
S'NNP'
p477
sg11
(dp478
sbssbsS'contract'
p479
g0
(g1
g2
Ntp480
Rp481
(dp482
g6
I1
sg7
S'Word'
p483
sg9
S'contract'
p484
sg11
(dp485
S'NNP'
p486
g0
(g1
g2
Ntp487
Rp488
(dp489
g6
I1
sg7
S'POS'
p490
sg9
S'NNP'
p491
sg11
(dp492
sbssbsS'inventory'
p493
g0
(g1
g2
Ntp494
Rp495
(dp496
g6
I1
sg7
S'Word'
p497
sg9
S'inventory'
p498
sg11
(dp499
S'NNP'
p500
g0
(g1
g2
Ntp501
Rp502
(dp503
g6
I1
sg7
S'POS'
p504
sg9
S'NNP'
p505
sg11
(dp506
sbssbssbsS'contract'
p507
g0
(g1
g2
Ntp508
Rp509
(dp510
g6
I1
sg7
S'Word'
p511
sg9
S'contract'
p512
sg11
(dp513
S'NNP'
p514
g0
(g1
g2
Ntp515
Rp516
(dp517
g6
I1
sg7
S'POS'
p518
sg9
S'NNP'
p519
sg11
(dp520
sbssbsS'freeze'
p521
g0
(g1
g2
Ntp522
Rp523
(dp524
g6
I1
sg7
S'Word'
p525
sg9
S'freeze'
p526
sg11
(dp527
S'NNP'
p528
g0
(g1
g2
Ntp529
Rp530
(dp531
g6
I1
sg7
S'POS'
p532
sg9
S'NNP'
p533
sg11
(dp534
sbssbsS'inventory'
p535
g0
(g1
g2
Ntp536
Rp537
(dp538
g6
I1
sg7
S'Word'
p539
sg9
S'inventory'
p540
sg11
(dp541
S'NNP'
p542
g0
(g1
g2
Ntp543
Rp544
(dp545
g6
I1
sg7
S'POS'
p546
sg9
S'NNP'
p547
sg11
(dp548
sbssbsS'assign'
p549
g0
(g1
g2
Ntp550
Rp551
(dp552
g6
I1
sg7
S'Word'
p553
sg9
S'assign'
p554
sg11
(dp555
S'NNP'
p556
g0
(g1
g2
Ntp557
Rp558
(dp559
g6
I1
sg7
S'POS'
p560
sg9
S'NNP'
p561
sg11
(dp562
sbssbssbsS'detail'
p563
g0
(g1
g2
Ntp564
Rp565
(dp566
g6
I1
sg7
S'Word'
p567
sg9
S'detail'
p568
sg11
(dp569
S'NNP'
p570
g0
(g1
g2
Ntp571
Rp572
(dp573
g6
I1
sg7
S'POS'
p574
sg9
S'NNP'
p575
sg11
(dp576
sbssbsS'purchasing'
p577
g0
(g1
g2
Ntp578
Rp579
(dp580
g6
I1
sg7
S'Word'
p581
sg9
S'purchasing'
p582
sg11
(dp583
S'NNP'
p584
g0
(g1
g2
Ntp585
Rp586
(dp587
g6
I1
sg7
S'POS'
p588
sg9
S'NNP'
p589
sg11
(dp590
sbssbssbsS'online'
p591
g0
(g1
g2
Ntp592
Rp593
(dp594
g6
I1
sg7
S'Word'
p595
sg9
S'online'
p596
sg11
(dp597
S'NNP'
p598
g0
(g1
g2
Ntp599
Rp600
(dp601
g6
I1
sg7
S'POS'
p602
sg9
S'NNP'
p603
sg11
(dp604
sbssbssbsS'Create Lead'
p605
g0
(g1
g2
Ntp606
Rp607
(dp608
g6
I1
sg7
S'Source'
p609
sg9
S'Create Lead'
p610
sg11
(dp611
S'create'
p612
g0
(g1
g2
Ntp613
Rp614
(dp615
g6
I1
sg7
S'Word'
p616
sg9
S'create'
p617
sg11
(dp618
S'NNP'
p619
g0
(g1
g2
Ntp620
Rp621
(dp622
g6
I1
sg7
S'POS'
p623
sg9
S'NNP'
p624
sg11
(dp625
sbssbsS'Contact Leads'
p626
g0
(g1
g2
Ntp627
Rp628
(dp629
g6
I1
sg7
S'Source'
p630
sg9
g626
sg11
(dp631
S'Update Lead Contact Information'
p632
g0
(g1
g2
Ntp633
Rp634
(dp635
g6
I1
sg7
S'Source'
p636
sg9
g632
sg11
(dp637
S'information'
p638
g0
(g1
g2
Ntp639
Rp640
(dp641
g6
I1
sg7
S'Word'
p642
sg9
S'information'
p643
sg11
(dp644
S'NNP'
p645
g0
(g1
g2
Ntp646
Rp647
(dp648
g6
I1
sg7
S'POS'
p649
sg9
S'NNP'
p650
sg11
(dp651
sbssbsS'Reserve Tour For Lead'
p652
g0
(g1
g2
Ntp653
Rp654
(dp655
g6
I1
sg7
S'Source'
p656
sg9
g652
sg11
(dp657
S'tour'
p658
g0
(g1
g2
Ntp659
Rp660
(dp661
g6
I1
sg7
S'Word'
p662
sg9
S'tour'
p663
sg11
(dp664
S'NNP'
p665
g0
(g1
g2
Ntp666
Rp667
(dp668
g6
I1
sg7
S'POS'
p669
sg9
S'NNP'
p670
sg11
(dp671
sbssbsS'Rate Lead Potential'
p672
g0
(g1
g2
Ntp673
Rp674
(dp675
g6
I1
sg7
S'Target'
p676
sg9
S'Rate Lead Potential'
p677
sg11
(dp678
S'tour'
p679
g0
(g1
g2
Ntp680
Rp681
(dp682
g6
I1
sg7
S'Word'
p683
sg9
S'tour'
p684
sg11
(dp685
S'NNP'
p686
g0
(g1
g2
Ntp687
Rp688
(dp689
g6
I1
sg7
S'POS'
p690
sg9
S'NNP'
p691
sg11
(dp692
sbssbsS'lead'
p693
g0
(g1
g2
Ntp694
Rp695
(dp696
g6
I1
sg7
S'Word'
p697
sg9
S'lead'
p698
sg11
(dp699
S'NNP'
p700
g0
(g1
g2
Ntp701
Rp702
(dp703
g6
I1
sg7
S'POS'
p704
sg9
S'NNP'
p705
sg11
(dp706
sbssbsS'for'
p707
g0
(g1
g2
Ntp708
Rp709
(dp710
g6
I1
sg7
S'Word'
p711
sg9
S'for'
p712
sg11
(dp713
S'NNP'
p714
g0
(g1
g2
Ntp715
Rp716
(dp717
g6
I1
sg7
S'POS'
p718
sg9
S'NNP'
p719
sg11
(dp720
sbssbsS'reserve'
p721
g0
(g1
g2
Ntp722
Rp723
(dp724
g6
I1
sg7
S'Word'
p725
sg9
S'reserve'
p726
sg11
(dp727
S'NNP'
p728
g0
(g1
g2
Ntp729
Rp730
(dp731
g6
I1
sg7
S'POS'
p732
sg9
S'NNP'
p733
sg11
(dp734
sbssbssbsS'lead'
p735
g0
(g1
g2
Ntp736
Rp737
(dp738
g6
I1
sg7
S'Word'
p739
sg9
S'lead'
p740
sg11
(dp741
S'NNP'
p742
g0
(g1
g2
Ntp743
Rp744
(dp745
g6
I1
sg7
S'POS'
p746
sg9
S'NNP'
p747
sg11
(dp748
sbssbsS'for'
p749
g0
(g1
g2
Ntp750
Rp751
(dp752
g6
I1
sg7
S'Word'
p753
sg9
S'for'
p754
sg11
(dp755
S'NNP'
p756
g0
(g1
g2
Ntp757
Rp758
(dp759
g6
I1
sg7
S'POS'
p760
sg9
S'NNP'
p761
sg11
(dp762
sbssbsS'reserve'
p763
g0
(g1
g2
Ntp764
Rp765
(dp766
g6
I1
sg7
S'Word'
p767
sg9
S'reserve'
p768
sg11
(dp769
S'NNP'
p770
g0
(g1
g2
Ntp771
Rp772
(dp773
g6
I1
sg7
S'POS'
p774
sg9
S'NNP'
p775
sg11
(dp776
sbssbssbsS'contact'
p777
g0
(g1
g2
Ntp778
Rp779
(dp780
g6
I1
sg7
S'Word'
p781
sg9
S'contact'
p782
sg11
(dp783
S'NNP'
p784
g0
(g1
g2
Ntp785
Rp786
(dp787
g6
I1
sg7
S'POS'
p788
sg9
S'NNP'
p789
sg11
(dp790
sbssbsS'update'
p791
g0
(g1
g2
Ntp792
Rp793
(dp794
g6
I1
sg7
S'Word'
p795
sg9
S'update'
p796
sg11
(dp797
S'NNP'
p798
g0
(g1
g2
Ntp799
Rp800
(dp801
g6
I1
sg7
S'POS'
p802
sg9
S'NNP'
p803
sg11
(dp804
sbssbsS'lead'
p805
g0
(g1
g2
Ntp806
Rp807
(dp808
g6
I1
sg7
S'Word'
p809
sg9
S'lead'
p810
sg11
(dp811
S'NNP'
p812
g0
(g1
g2
Ntp813
Rp814
(dp815
g6
I1
sg7
S'POS'
p816
sg9
S'NNP'
p817
sg11
(dp818
sbssbssbsS'contact'
p819
g0
(g1
g2
Ntp820
Rp821
(dp822
g6
I1
sg7
S'Word'
p823
sg9
S'contact'
p824
sg11
(dp825
S'NN'
p826
g0
(g1
g2
Ntp827
Rp828
(dp829
g6
I1
sg7
S'POS'
p830
sg9
S'NN'
p831
sg11
(dp832
sbssbsS'lead'
p833
g0
(g1
g2
Ntp834
Rp835
(dp836
g6
I1
sg7
S'Word'
p837
sg9
S'lead'
p838
sg11
(dp839
S'NNS'
p840
g0
(g1
g2
Ntp841
Rp842
(dp843
g6
I1
sg7
S'POS'
p844
sg9
S'NNS'
p845
sg11
(dp846
sbssbssbsS'lead'
p847
g0
(g1
g2
Ntp848
Rp849
(dp850
g6
I1
sg7
S'Word'
p851
sg9
S'lead'
p852
sg11
(dp853
S'NNP'
p854
g0
(g1
g2
Ntp855
Rp856
(dp857
g6
I1
sg7
S'POS'
p858
sg9
S'NNP'
p859
sg11
(dp860
sbssbssbsS'Recieve Declined Contract'
p861
g0
(g1
g2
Ntp862
Rp863
(dp864
g6
I1
sg7
S'Source'
p865
sg9
S'Recieve Declined Contract'
p866
sg11
(dp867
S'recieve'
p868
g0
(g1
g2
Ntp869
Rp870
(dp871
g6
I1
sg7
S'Word'
p872
sg9
S'recieve'
p873
sg11
(dp874
S'NNP'
p875
g0
(g1
g2
Ntp876
Rp877
(dp878
g6
I1
sg7
S'POS'
p879
sg9
S'NNP'
p880
sg11
(dp881
sbssbsS'Thaw Inventory'
p882
g0
(g1
g2
Ntp883
Rp884
(dp885
g6
I1
sg7
S'Target'
p886
sg9
S'Thaw Inventory'
p887
sg11
(dp888
S'recieve'
p889
g0
(g1
g2
Ntp890
Rp891
(dp892
g6
I1
sg7
S'Word'
p893
sg9
S'recieve'
p894
sg11
(dp895
S'NNP'
p896
g0
(g1
g2
Ntp897
Rp898
(dp899
g6
I1
sg7
S'POS'
p900
sg9
S'NNP'
p901
sg11
(dp902
sbssbsS'contract'
p903
g0
(g1
g2
Ntp904
Rp905
(dp906
g6
I1
sg7
S'Word'
p907
sg9
S'contract'
p908
sg11
(dp909
S'NNP'
p910
g0
(g1
g2
Ntp911
Rp912
(dp913
g6
I1
sg7
S'POS'
p914
sg9
S'NNP'
p915
sg11
(dp916
sbssbsS'declined'
p917
g0
(g1
g2
Ntp918
Rp919
(dp920
g6
I1
sg7
S'Word'
p921
sg9
S'declined'
p922
sg11
(dp923
S'NNP'
p924
g0
(g1
g2
Ntp925
Rp926
(dp927
g6
I1
sg7
S'POS'
p928
sg9
S'NNP'
p929
sg11
(dp930
sbssbssbsS'contract'
p931
g0
(g1
g2
Ntp932
Rp933
(dp934
g6
I1
sg7
S'Word'
p935
sg9
S'contract'
p936
sg11
(dp937
S'NNP'
p938
g0
(g1
g2
Ntp939
Rp940
(dp941
g6
I1
sg7
S'POS'
p942
sg9
S'NNP'
p943
sg11
(dp944
sbssbsS'declined'
p945
g0
(g1
g2
Ntp946
Rp947
(dp948
g6
I1
sg7
S'Word'
p949
sg9
S'declined'
p950
sg11
(dp951
S'NNP'
p952
g0
(g1
g2
Ntp953
Rp954
(dp955
g6
I1
sg7
S'POS'
p956
sg9
S'NNP'
p957
sg11
(dp958
sbssbssbsS'Member Transfers Title to DVC'
p959
g0
(g1
g2
Ntp960
Rp961
(dp962
g6
I1
sg7
S'Source'
p963
sg9
S'Member Transfers Title to DVC'
p964
sg11
(dp965
S'member'
p966
g0
(g1
g2
Ntp967
Rp968
(dp969
g6
I1
sg7
S'Word'
p970
sg9
S'member'
p971
sg11
(dp972
S'NNP'
p973
g0
(g1
g2
Ntp974
Rp975
(dp976
g6
I1
sg7
S'POS'
p977
sg9
S'NNP'
p978
sg11
(dp979
sbssbsS'transfer'
p980
g0
(g1
g2
Ntp981
Rp982
(dp983
g6
I1
sg7
S'Word'
p984
sg9
S'transfer'
p985
sg11
(dp986
S'NNP'
p987
g0
(g1
g2
Ntp988
Rp989
(dp990
g6
I1
sg7
S'POS'
p991
sg9
S'NNP'
p992
sg11
(dp993
sbssbsS'Update Inventory'
p994
g0
(g1
g2
Ntp995
Rp996
(dp997
g6
I1
sg7
S'Target'
p998
sg9
S'Update Inventory'
p999
sg11
(dp1000
S'member'
p1001
g0
(g1
g2
Ntp1002
Rp1003
(dp1004
g6
I1
sg7
S'Word'
p1005
sg9
S'member'
p1006
sg11
(dp1007
S'NNP'
p1008
g0
(g1
g2
Ntp1009
Rp1010
(dp1011
g6
I1
sg7
S'POS'
p1012
sg9
S'NNP'
p1013
sg11
(dp1014
sbssbsS'transfer'
p1015
g0
(g1
g2
Ntp1016
Rp1017
(dp1018
g6
I1
sg7
S'Word'
p1019
sg9
S'transfer'
p1020
sg11
(dp1021
S'NNP'
p1022
g0
(g1
g2
Ntp1023
Rp1024
(dp1025
g6
I1
sg7
S'POS'
p1026
sg9
S'NNP'
p1027
sg11
(dp1028
sbssbsS'dvc'
p1029
g0
(g1
g2
Ntp1030
Rp1031
(dp1032
g6
I1
sg7
S'Word'
p1033
sg9
S'dvc'
p1034
sg11
(dp1035
S'NNP'
p1036
g0
(g1
g2
Ntp1037
Rp1038
(dp1039
g6
I1
sg7
S'POS'
p1040
sg9
S'NNP'
p1041
sg11
(dp1042
sbssbsS'title'
p1043
g0
(g1
g2
Ntp1044
Rp1045
(dp1046
g6
I1
sg7
S'Word'
p1047
sg9
S'title'
p1048
sg11
(dp1049
S'NNP'
p1050
g0
(g1
g2
Ntp1051
Rp1052
(dp1053
g6
I1
sg7
S'POS'
p1054
sg9
S'NNP'
p1055
sg11
(dp1056
sbssbssbsS'dvc'
p1057
g0
(g1
g2
Ntp1058
Rp1059
(dp1060
g6
I1
sg7
S'Word'
p1061
sg9
S'dvc'
p1062
sg11
(dp1063
S'NNP'
p1064
g0
(g1
g2
Ntp1065
Rp1066
(dp1067
g6
I1
sg7
S'POS'
p1068
sg9
S'NNP'
p1069
sg11
(dp1070
sbssbsS'title'
p1071
g0
(g1
g2
Ntp1072
Rp1073
(dp1074
g6
I1
sg7
S'Word'
p1075
sg9
S'title'
p1076
sg11
(dp1077
S'NNP'
p1078
g0
(g1
g2
Ntp1079
Rp1080
(dp1081
g6
I1
sg7
S'POS'
p1082
sg9
S'NNP'
p1083
sg11
(dp1084
sbssbssbsS'Revenue Platform'
p1085
g0
(g1
g2
Ntp1086
Rp1087
(dp1088
g6
I1
sg7
S'Source'
p1089
sg9
S'Revenue Platform'
p1090
sg11
(dp1091
S'platform'
p1092
g0
(g1
g2
Ntp1093
Rp1094
(dp1095
g6
I1
sg7
S'Word'
p1096
sg9
S'platform'
p1097
sg11
(dp1098
S'NN'
p1099
g0
(g1
g2
Ntp1100
Rp1101
(dp1102
g6
I1
sg7
S'POS'
p1103
sg9
S'NN'
p1104
sg11
(dp1105
sbssbsS'Reporting'
p1106
g0
(g1
g2
Ntp1107
Rp1108
(dp1109
g6
I1
sg7
S'Target'
p1110
sg9
S'Reporting'
p1111
sg11
(dp1112
S'platform'
p1113
g0
(g1
g2
Ntp1114
Rp1115
(dp1116
g6
I1
sg7
S'Word'
p1117
sg9
S'platform'
p1118
sg11
(dp1119
S'NN'
p1120
g0
(g1
g2
Ntp1121
Rp1122
(dp1123
g6
I1
sg7
S'POS'
p1124
sg9
S'NN'
p1125
sg11
(dp1126
sbssbsS'revenue'
p1127
g0
(g1
g2
Ntp1128
Rp1129
(dp1130
g6
I1
sg7
S'Word'
p1131
sg9
S'revenue'
p1132
sg11
(dp1133
S'NN'
p1134
g0
(g1
g2
Ntp1135
Rp1136
(dp1137
g6
I1
sg7
S'POS'
p1138
sg9
S'NN'
p1139
sg11
(dp1140
sbssbssbsS'revenue'
p1141
g0
(g1
g2
Ntp1142
Rp1143
(dp1144
g6
I1
sg7
S'Word'
p1145
sg9
S'revenue'
p1146
sg11
(dp1147
S'NN'
p1148
g0
(g1
g2
Ntp1149
Rp1150
(dp1151
g6
I1
sg7
S'POS'
p1152
sg9
S'NN'
p1153
sg11
(dp1154
sbssbssbsS'Collect Purchasing Details'
p1155
g357
sS'Review Proposal with Prospect'
p1156
g0
(g1
g2
Ntp1157
Rp1158
(dp1159
g6
I1
sg7
S'Source'
p1160
sg9
S'Review Proposal with Prospect'
p1161
sg11
(dp1162
S'prospect'
p1163
g0
(g1
g2
Ntp1164
Rp1165
(dp1166
g6
I1
sg7
S'Word'
p1167
sg9
S'prospect'
p1168
sg11
(dp1169
S'NNP'
p1170
g0
(g1
g2
Ntp1171
Rp1172
(dp1173
g6
I1
sg7
S'POS'
p1174
sg9
S'NNP'
p1175
sg11
(dp1176
sbssbsS'Update Proposal'
p1177
g0
(g1
g2
Ntp1178
Rp1179
(dp1180
g6
I1
sg7
S'Target'
p1181
sg9
S'Update Proposal'
p1182
sg11
(dp1183
S'prospect'
p1184
g0
(g1
g2
Ntp1185
Rp1186
(dp1187
g6
I1
sg7
S'Word'
p1188
sg9
S'prospect'
p1189
sg11
(dp1190
S'NNP'
p1191
g0
(g1
g2
Ntp1192
Rp1193
(dp1194
g6
I1
sg7
S'POS'
p1195
sg9
S'NNP'
p1196
sg11
(dp1197
sbssbsS'review'
p1198
g0
(g1
g2
Ntp1199
Rp1200
(dp1201
g6
I1
sg7
S'Word'
p1202
sg9
S'review'
p1203
sg11
(dp1204
S'NNP'
p1205
g0
(g1
g2
Ntp1206
Rp1207
(dp1208
g6
I1
sg7
S'POS'
p1209
sg9
S'NNP'
p1210
sg11
(dp1211
sbssbsS'proposal'
p1212
g0
(g1
g2
Ntp1213
Rp1214
(dp1215
g6
I1
sg7
S'Word'
p1216
sg9
S'proposal'
p1217
sg11
(dp1218
S'NNP'
p1219
g0
(g1
g2
Ntp1220
Rp1221
(dp1222
g6
I1
sg7
S'POS'
p1223
sg9
S'NNP'
p1224
sg11
(dp1225
sbssbssbsS'review'
p1226
g0
(g1
g2
Ntp1227
Rp1228
(dp1229
g6
I1
sg7
S'Word'
p1230
sg9
S'review'
p1231
sg11
(dp1232
S'NNP'
p1233
g0
(g1
g2
Ntp1234
Rp1235
(dp1236
g6
I1
sg7
S'POS'
p1237
sg9
S'NNP'
p1238
sg11
(dp1239
sbssbsS'proposal'
p1240
g0
(g1
g2
Ntp1241
Rp1242
(dp1243
g6
I1
sg7
S'Word'
p1244
sg9
S'proposal'
p1245
sg11
(dp1246
S'NNP'
p1247
g0
(g1
g2
Ntp1248
Rp1249
(dp1250
g6
I1
sg7
S'POS'
p1251
sg9
S'NNP'
p1252
sg11
(dp1253
sbssbsS'Withdrawl Proposal'
p1254
g0
(g1
g2
Ntp1255
Rp1256
(dp1257
g6
I1
sg7
S'Target'
p1258
sg9
S'Withdrawl Proposal'
p1259
sg11
(dp1260
S'prospect'
p1261
g0
(g1
g2
Ntp1262
Rp1263
(dp1264
g6
I1
sg7
S'Word'
p1265
sg9
S'prospect'
p1266
sg11
(dp1267
S'NNP'
p1268
g0
(g1
g2
Ntp1269
Rp1270
(dp1271
g6
I1
sg7
S'POS'
p1272
sg9
S'NNP'
p1273
sg11
(dp1274
sbssbsS'review'
p1275
g0
(g1
g2
Ntp1276
Rp1277
(dp1278
g6
I1
sg7
S'Word'
p1279
sg9
S'review'
p1280
sg11
(dp1281
S'NNP'
p1282
g0
(g1
g2
Ntp1283
Rp1284
(dp1285
g6
I1
sg7
S'POS'
p1286
sg9
S'NNP'
p1287
sg11
(dp1288
sbssbsS'proposal'
p1289
g0
(g1
g2
Ntp1290
Rp1291
(dp1292
g6
I1
sg7
S'Word'
p1293
sg9
S'proposal'
p1294
sg11
(dp1295
S'NNP'
p1296
g0
(g1
g2
Ntp1297
Rp1298
(dp1299
g6
I1
sg7
S'POS'
p1300
sg9
S'NNP'
p1301
sg11
(dp1302
sbssbssbssbsS'Post Member Points Used in Reservation'
p1303
g0
(g1
g2
Ntp1304
Rp1305
(dp1306
g6
I1
sg7
S'Source'
p1307
sg9
S'Post Member Points Used in Reservation'
p1308
sg11
(dp1309
S'used'
p1310
g0
(g1
g2
Ntp1311
Rp1312
(dp1313
g6
I1
sg7
S'Word'
p1314
sg9
S'used'
p1315
sg11
(dp1316
S'NNP'
p1317
g0
(g1
g2
Ntp1318
Rp1319
(dp1320
g6
I1
sg7
S'POS'
p1321
sg9
S'NNP'
p1322
sg11
(dp1323
sbssbsS'point'
p1324
g0
(g1
g2
Ntp1325
Rp1326
(dp1327
g6
I1
sg7
S'Word'
p1328
sg9
S'point'
p1329
sg11
(dp1330
S'NNP'
p1331
g0
(g1
g2
Ntp1332
Rp1333
(dp1334
g6
I1
sg7
S'POS'
p1335
sg9
S'NNP'
p1336
sg11
(dp1337
sbssbsS'member'
p1338
g0
(g1
g2
Ntp1339
Rp1340
(dp1341
g6
I1
sg7
S'Word'
p1342
sg9
S'member'
p1343
sg11
(dp1344
S'NNP'
p1345
g0
(g1
g2
Ntp1346
Rp1347
(dp1348
g6
I1
sg7
S'POS'
p1349
sg9
S'NNP'
p1350
sg11
(dp1351
sbssbsS'reservation'
p1352
g0
(g1
g2
Ntp1353
Rp1354
(dp1355
g6
I1
sg7
S'Word'
p1356
sg9
S'reservation'
p1357
sg11
(dp1358
S'NNP'
p1359
g0
(g1
g2
Ntp1360
Rp1361
(dp1362
g6
I1
sg7
S'POS'
p1363
sg9
S'NNP'
p1364
sg11
(dp1365
sbssbsS'post'
p1366
g0
(g1
g2
Ntp1367
Rp1368
(dp1369
g6
I1
sg7
S'Word'
p1370
sg9
S'post'
p1371
sg11
(dp1372
S'NNP'
p1373
g0
(g1
g2
Ntp1374
Rp1375
(dp1376
g6
I1
sg7
S'POS'
p1377
sg9
S'NNP'
p1378
sg11
(dp1379
sbssbsS'Reconcile Journals'
p1380
g0
(g1
g2
Ntp1381
Rp1382
(dp1383
g6
I1
sg7
S'Target'
p1384
sg9
S'Reconcile Journals'
p1385
sg11
(dp1386
S'member'
p1387
g0
(g1
g2
Ntp1388
Rp1389
(dp1390
g6
I1
sg7
S'Word'
p1391
sg9
S'member'
p1392
sg11
(dp1393
S'NNP'
p1394
g0
(g1
g2
Ntp1395
Rp1396
(dp1397
g6
I1
sg7
S'POS'
p1398
sg9
S'NNP'
p1399
sg11
(dp1400
sbssbsS'reservation'
p1401
g0
(g1
g2
Ntp1402
Rp1403
(dp1404
g6
I1
sg7
S'Word'
p1405
sg9
S'reservation'
p1406
sg11
(dp1407
S'NNP'
p1408
g0
(g1
g2
Ntp1409
Rp1410
(dp1411
g6
I1
sg7
S'POS'
p1412
sg9
S'NNP'
p1413
sg11
(dp1414
sbssbsS'post'
p1415
g0
(g1
g2
Ntp1416
Rp1417
(dp1418
g6
I1
sg7
S'Word'
p1419
sg9
S'post'
p1420
sg11
(dp1421
S'NNP'
p1422
g0
(g1
g2
Ntp1423
Rp1424
(dp1425
g6
I1
sg7
S'POS'
p1426
sg9
S'NNP'
p1427
sg11
(dp1428
sbssbsS'used'
p1429
g0
(g1
g2
Ntp1430
Rp1431
(dp1432
g6
I1
sg7
S'Word'
p1433
sg9
S'used'
p1434
sg11
(dp1435
S'NNP'
p1436
g0
(g1
g2
Ntp1437
Rp1438
(dp1439
g6
I1
sg7
S'POS'
p1440
sg9
S'NNP'
p1441
sg11
(dp1442
sbssbsS'point'
p1443
g0
(g1
g2
Ntp1444
Rp1445
(dp1446
g6
I1
sg7
S'Word'
p1447
sg9
S'point'
p1448
sg11
(dp1449
S'NNP'
p1450
g0
(g1
g2
Ntp1451
Rp1452
(dp1453
g6
I1
sg7
S'POS'
p1454
sg9
S'NNP'
p1455
sg11
(dp1456
sbssbssbssbsS'Reserve Tour For Lead'
p1457
g654
sS'Determine Report'
p1458
g0
(g1
g2
Ntp1459
Rp1460
(dp1461
g6
I1
sg7
S'Source'
p1462
sg9
S'Determine Report'
p1463
sg11
(dp1464
S'report'
p1465
g0
(g1
g2
Ntp1466
Rp1467
(dp1468
g6
I1
sg7
S'Word'
p1469
sg9
S'report'
p1470
sg11
(dp1471
S'NNP'
p1472
g0
(g1
g2
Ntp1473
Rp1474
(dp1475
g6
I1
sg7
S'POS'
p1476
sg9
S'NNP'
p1477
sg11
(dp1478
sbssbsS'Generate Operational Report'
p1479
g0
(g1
g2
Ntp1480
Rp1481
(dp1482
g6
I1
sg7
S'Target'
p1483
sg9
S'Generate Operational Report'
p1484
sg11
(dp1485
S'report'
p1486
g0
(g1
g2
Ntp1487
Rp1488
(dp1489
g6
I1
sg7
S'Word'
p1490
sg9
S'report'
p1491
sg11
(dp1492
S'NNP'
p1493
g0
(g1
g2
Ntp1494
Rp1495
(dp1496
g6
I1
sg7
S'POS'
p1497
sg9
S'NNP'
p1498
sg11
(dp1499
sbssbsS'determine'
p1500
g0
(g1
g2
Ntp1501
Rp1502
(dp1503
g6
I1
sg7
S'Word'
p1504
sg9
S'determine'
p1505
sg11
(dp1506
S'NNP'
p1507
g0
(g1
g2
Ntp1508
Rp1509
(dp1510
g6
I1
sg7
S'POS'
p1511
sg9
S'NNP'
p1512
sg11
(dp1513
sbssbssbsS'Generate Report'
p1514
g0
(g1
g2
Ntp1515
Rp1516
(dp1517
g6
I1
sg7
S'Source'
p1518
sg9
g1514
sg11
(dp1519
S'report'
p1520
g0
(g1
g2
Ntp1521
Rp1522
(dp1523
g6
I1
sg7
S'Word'
p1524
sg9
S'report'
p1525
sg11
(dp1526
S'NNP'
p1527
g0
(g1
g2
Ntp1528
Rp1529
(dp1530
g6
I1
sg7
S'POS'
p1531
sg9
S'NNP'
p1532
sg11
(dp1533
sbssbsS'Publish Report'
p1534
g0
(g1
g2
Ntp1535
Rp1536
(dp1537
g6
I1
sg7
S'Target'
p1538
sg9
S'Publish Report'
p1539
sg11
(dp1540
S'report'
p1541
g0
(g1
g2
Ntp1542
Rp1543
(dp1544
g6
I1
sg7
S'Word'
p1545
sg9
S'report'
p1546
sg11
(dp1547
S'NNP'
p1548
g0
(g1
g2
Ntp1549
Rp1550
(dp1551
g6
I1
sg7
S'POS'
p1552
sg9
S'NNP'
p1553
sg11
(dp1554
sbssbsS'generate'
p1555
g0
(g1
g2
Ntp1556
Rp1557
(dp1558
g6
I1
sg7
S'Word'
p1559
sg9
S'generate'
p1560
sg11
(dp1561
S'NNP'
p1562
g0
(g1
g2
Ntp1563
Rp1564
(dp1565
g6
I1
sg7
S'POS'
p1566
sg9
S'NNP'
p1567
sg11
(dp1568
sbssbssbsS'generate'
p1569
g0
(g1
g2
Ntp1570
Rp1571
(dp1572
g6
I1
sg7
S'Word'
p1573
sg9
S'generate'
p1574
sg11
(dp1575
S'NNP'
p1576
g0
(g1
g2
Ntp1577
Rp1578
(dp1579
g6
I1
sg7
S'POS'
p1580
sg9
S'NNP'
p1581
sg11
(dp1582
sbssbssbsS'determine'
p1583
g0
(g1
g2
Ntp1584
Rp1585
(dp1586
g6
I1
sg7
S'Word'
p1587
sg9
S'determine'
p1588
sg11
(dp1589
S'NNP'
p1590
g0
(g1
g2
Ntp1591
Rp1592
(dp1593
g6
I1
sg7
S'POS'
p1594
sg9
S'NNP'
p1595
sg11
(dp1596
sbssbssbsS'Post Closing Fees'
p1597
g0
(g1
g2
Ntp1598
Rp1599
(dp1600
g6
I1
sg7
S'Source'
p1601
sg9
S'Post Closing Fees'
p1602
sg11
(dp1603
S'post'
p1604
g0
(g1
g2
Ntp1605
Rp1606
(dp1607
g6
I1
sg7
S'Word'
p1608
sg9
S'post'
p1609
sg11
(dp1610
S'NNP'
p1611
g0
(g1
g2
Ntp1612
Rp1613
(dp1614
g6
I1
sg7
S'POS'
p1615
sg9
S'NNP'
p1616
sg11
(dp1617
sbssbsS'fee'
p1618
g0
(g1
g2
Ntp1619
Rp1620
(dp1621
g6
I1
sg7
S'Word'
p1622
sg9
S'fee'
p1623
sg11
(dp1624
S'NNP'
p1625
g0
(g1
g2
Ntp1626
Rp1627
(dp1628
g6
I1
sg7
S'POS'
p1629
sg9
S'NNP'
p1630
sg11
(dp1631
sbssbsS'Reconcile Journals'
p1632
g0
(g1
g2
Ntp1633
Rp1634
(dp1635
g6
I1
sg7
S'Target'
p1636
sg9
S'Reconcile Journals'
p1637
sg11
(dp1638
S'post'
p1639
g0
(g1
g2
Ntp1640
Rp1641
(dp1642
g6
I1
sg7
S'Word'
p1643
sg9
S'post'
p1644
sg11
(dp1645
S'NNP'
p1646
g0
(g1
g2
Ntp1647
Rp1648
(dp1649
g6
I1
sg7
S'POS'
p1650
sg9
S'NNP'
p1651
sg11
(dp1652
sbssbsS'fee'
p1653
g0
(g1
g2
Ntp1654
Rp1655
(dp1656
g6
I1
sg7
S'Word'
p1657
sg9
S'fee'
p1658
sg11
(dp1659
S'NNP'
p1660
g0
(g1
g2
Ntp1661
Rp1662
(dp1663
g6
I1
sg7
S'POS'
p1664
sg9
S'NNP'
p1665
sg11
(dp1666
sbssbsS'closing'
p1667
g0
(g1
g2
Ntp1668
Rp1669
(dp1670
g6
I1
sg7
S'Word'
p1671
sg9
S'closing'
p1672
sg11
(dp1673
S'NNP'
p1674
g0
(g1
g2
Ntp1675
Rp1676
(dp1677
g6
I1
sg7
S'POS'
p1678
sg9
S'NNP'
p1679
sg11
(dp1680
sbssbssbsS'closing'
p1681
g0
(g1
g2
Ntp1682
Rp1683
(dp1684
g6
I1
sg7
S'Word'
p1685
sg9
S'closing'
p1686
sg11
(dp1687
S'NNP'
p1688
g0
(g1
g2
Ntp1689
Rp1690
(dp1691
g6
I1
sg7
S'POS'
p1692
sg9
S'NNP'
p1693
sg11
(dp1694
sbssbssbsS'Determine Prospect Eligibility'
p1695
g0
(g1
g2
Ntp1696
Rp1697
(dp1698
g6
I1
sg7
S'Source'
p1699
sg9
S'Determine Prospect Eligibility'
p1700
sg11
(dp1701
S'prospect'
p1702
g0
(g1
g2
Ntp1703
Rp1704
(dp1705
g6
I1
sg7
S'Word'
p1706
sg9
S'prospect'
p1707
sg11
(dp1708
S'NNP'
p1709
g0
(g1
g2
Ntp1710
Rp1711
(dp1712
g6
I1
sg7
S'POS'
p1713
sg9
S'NNP'
p1714
sg11
(dp1715
sbssbsS'eligibility'
p1716
g0
(g1
g2
Ntp1717
Rp1718
(dp1719
g6
I1
sg7
S'Word'
p1720
sg9
S'eligibility'
p1721
sg11
(dp1722
S'NNP'
p1723
g0
(g1
g2
Ntp1724
Rp1725
(dp1726
g6
I1
sg7
S'POS'
p1727
sg9
S'NNP'
p1728
sg11
(dp1729
sbssbsS'determine'
p1730
g0
(g1
g2
Ntp1731
Rp1732
(dp1733
g6
I1
sg7
S'Word'
p1734
sg9
S'determine'
p1735
sg11
(dp1736
S'NNP'
p1737
g0
(g1
g2
Ntp1738
Rp1739
(dp1740
g6
I1
sg7
S'POS'
p1741
sg9
S'NNP'
p1742
sg11
(dp1743
sbssbsg1161
g1158
ssbsS'Reconcile Journals'
p1744
g0
(g1
g2
Ntp1745
Rp1746
(dp1747
g6
I1
sg7
S'Source'
p1748
sg9
S'Reconcile Journals'
p1749
sg11
(dp1750
S'journal'
p1751
g0
(g1
g2
Ntp1752
Rp1753
(dp1754
g6
I1
sg7
S'Word'
p1755
sg9
S'journal'
p1756
sg11
(dp1757
S'NNPS'
p1758
g0
(g1
g2
Ntp1759
Rp1760
(dp1761
g6
I1
sg7
S'POS'
p1762
sg9
S'NNPS'
p1763
sg11
(dp1764
sbssbsS'reconcile'
p1765
g0
(g1
g2
Ntp1766
Rp1767
(dp1768
g6
I1
sg7
S'Word'
p1769
sg9
S'reconcile'
p1770
sg11
(dp1771
S'NNP'
p1772
g0
(g1
g2
Ntp1773
Rp1774
(dp1775
g6
I1
sg7
S'POS'
p1776
sg9
S'NNP'
p1777
sg11
(dp1778
sbssbsS'Settle General Ledger'
p1779
g0
(g1
g2
Ntp1780
Rp1781
(dp1782
g6
I1
sg7
S'Source'
p1783
sg9
g1779
sg11
(dp1784
S'settle'
p1785
g0
(g1
g2
Ntp1786
Rp1787
(dp1788
g6
I1
sg7
S'Word'
p1789
sg9
S'settle'
p1790
sg11
(dp1791
S'NNP'
p1792
g0
(g1
g2
Ntp1793
Rp1794
(dp1795
g6
I1
sg7
S'POS'
p1796
sg9
S'NNP'
p1797
sg11
(dp1798
sbssbsS'Settle Dues'
p1799
g0
(g1
g2
Ntp1800
Rp1801
(dp1802
g6
I1
sg7
S'Target'
p1803
sg9
S'Settle Dues'
p1804
sg11
(dp1805
S'settle'
p1806
g0
(g1
g2
Ntp1807
Rp1808
(dp1809
g6
I1
sg7
S'Word'
p1810
sg9
S'settle'
p1811
sg11
(dp1812
S'NNP'
p1813
g0
(g1
g2
Ntp1814
Rp1815
(dp1816
g6
I1
sg7
S'POS'
p1817
sg9
S'NNP'
p1818
sg11
(dp1819
sbssbsS'ledger'
p1820
g0
(g1
g2
Ntp1821
Rp1822
(dp1823
g6
I1
sg7
S'Word'
p1824
sg9
S'ledger'
p1825
sg11
(dp1826
S'NNP'
p1827
g0
(g1
g2
Ntp1828
Rp1829
(dp1830
g6
I1
sg7
S'POS'
p1831
sg9
S'NNP'
p1832
sg11
(dp1833
sbssbsS'general'
p1834
g0
(g1
g2
Ntp1835
Rp1836
(dp1837
g6
I1
sg7
S'Word'
p1838
sg9
S'general'
p1839
sg11
(dp1840
S'NNP'
p1841
g0
(g1
g2
Ntp1842
Rp1843
(dp1844
g6
I1
sg7
S'POS'
p1845
sg9
S'NNP'
p1846
sg11
(dp1847
sbssbssbsS'Settle Deposit'
p1848
g0
(g1
g2
Ntp1849
Rp1850
(dp1851
g6
I1
sg7
S'Target'
p1852
sg9
S'Settle Deposit'
p1853
sg11
(dp1854
S'settle'
p1855
g0
(g1
g2
Ntp1856
Rp1857
(dp1858
g6
I1
sg7
S'Word'
p1859
sg9
S'settle'
p1860
sg11
(dp1861
S'NNP'
p1862
g0
(g1
g2
Ntp1863
Rp1864
(dp1865
g6
I1
sg7
S'POS'
p1866
sg9
S'NNP'
p1867
sg11
(dp1868
sbssbsS'ledger'
p1869
g0
(g1
g2
Ntp1870
Rp1871
(dp1872
g6
I1
sg7
S'Word'
p1873
sg9
S'ledger'
p1874
sg11
(dp1875
S'NNP'
p1876
g0
(g1
g2
Ntp1877
Rp1878
(dp1879
g6
I1
sg7
S'POS'
p1880
sg9
S'NNP'
p1881
sg11
(dp1882
sbssbsS'general'
p1883
g0
(g1
g2
Ntp1884
Rp1885
(dp1886
g6
I1
sg7
S'Word'
p1887
sg9
S'general'
p1888
sg11
(dp1889
S'NNP'
p1890
g0
(g1
g2
Ntp1891
Rp1892
(dp1893
g6
I1
sg7
S'POS'
p1894
sg9
S'NNP'
p1895
sg11
(dp1896
sbssbssbsS'Settle Bond'
p1897
g0
(g1
g2
Ntp1898
Rp1899
(dp1900
g6
I1
sg7
S'Target'
p1901
sg9
S'Settle Bond'
p1902
sg11
(dp1903
S'settle'
p1904
g0
(g1
g2
Ntp1905
Rp1906
(dp1907
g6
I1
sg7
S'Word'
p1908
sg9
S'settle'
p1909
sg11
(dp1910
S'NNP'
p1911
g0
(g1
g2
Ntp1912
Rp1913
(dp1914
g6
I1
sg7
S'POS'
p1915
sg9
S'NNP'
p1916
sg11
(dp1917
sbssbsS'ledger'
p1918
g0
(g1
g2
Ntp1919
Rp1920
(dp1921
g6
I1
sg7
S'Word'
p1922
sg9
S'ledger'
p1923
sg11
(dp1924
S'NNP'
p1925
g0
(g1
g2
Ntp1926
Rp1927
(dp1928
g6
I1
sg7
S'POS'
p1929
sg9
S'NNP'
p1930
sg11
(dp1931
sbssbsS'general'
p1932
g0
(g1
g2
Ntp1933
Rp1934
(dp1935
g6
I1
sg7
S'Word'
p1936
sg9
S'general'
p1937
sg11
(dp1938
S'NNP'
p1939
g0
(g1
g2
Ntp1940
Rp1941
(dp1942
g6
I1
sg7
S'POS'
p1943
sg9
S'NNP'
p1944
sg11
(dp1945
sbssbssbsS'ledger'
p1946
g0
(g1
g2
Ntp1947
Rp1948
(dp1949
g6
I1
sg7
S'Word'
p1950
sg9
S'ledger'
p1951
sg11
(dp1952
S'NNP'
p1953
g0
(g1
g2
Ntp1954
Rp1955
(dp1956
g6
I1
sg7
S'POS'
p1957
sg9
S'NNP'
p1958
sg11
(dp1959
sbssbsS'general'
p1960
g0
(g1
g2
Ntp1961
Rp1962
(dp1963
g6
I1
sg7
S'Word'
p1964
sg9
S'general'
p1965
sg11
(dp1966
S'NNP'
p1967
g0
(g1
g2
Ntp1968
Rp1969
(dp1970
g6
I1
sg7
S'POS'
p1971
sg9
S'NNP'
p1972
sg11
(dp1973
sbssbsS'Settle Resort'
p1974
g0
(g1
g2
Ntp1975
Rp1976
(dp1977
g6
I1
sg7
S'Target'
p1978
sg9
S'Settle Resort'
p1979
sg11
(dp1980
S'settle'
p1981
g0
(g1
g2
Ntp1982
Rp1983
(dp1984
g6
I1
sg7
S'Word'
p1985
sg9
S'settle'
p1986
sg11
(dp1987
S'NNP'
p1988
g0
(g1
g2
Ntp1989
Rp1990
(dp1991
g6
I1
sg7
S'POS'
p1992
sg9
S'NNP'
p1993
sg11
(dp1994
sbssbsS'ledger'
p1995
g0
(g1
g2
Ntp1996
Rp1997
(dp1998
g6
I1
sg7
S'Word'
p1999
sg9
S'ledger'
p2000
sg11
(dp2001
S'NNP'
p2002
g0
(g1
g2
Ntp2003
Rp2004
(dp2005
g6
I1
sg7
S'POS'
p2006
sg9
S'NNP'
p2007
sg11
(dp2008
sbssbsS'general'
p2009
g0
(g1
g2
Ntp2010
Rp2011
(dp2012
g6
I1
sg7
S'Word'
p2013
sg9
S'general'
p2014
sg11
(dp2015
S'NNP'
p2016
g0
(g1
g2
Ntp2017
Rp2018
(dp2019
g6
I1
sg7
S'POS'
p2020
sg9
S'NNP'
p2021
sg11
(dp2022
sbssbssbsS'Settle Escrow'
p2023
g0
(g1
g2
Ntp2024
Rp2025
(dp2026
g6
I1
sg7
S'Target'
p2027
sg9
S'Settle Escrow'
p2028
sg11
(dp2029
S'settle'
p2030
g0
(g1
g2
Ntp2031
Rp2032
(dp2033
g6
I1
sg7
S'Word'
p2034
sg9
S'settle'
p2035
sg11
(dp2036
S'NNP'
p2037
g0
(g1
g2
Ntp2038
Rp2039
(dp2040
g6
I1
sg7
S'POS'
p2041
sg9
S'NNP'
p2042
sg11
(dp2043
sbssbsS'ledger'
p2044
g0
(g1
g2
Ntp2045
Rp2046
(dp2047
g6
I1
sg7
S'Word'
p2048
sg9
S'ledger'
p2049
sg11
(dp2050
S'NNP'
p2051
g0
(g1
g2
Ntp2052
Rp2053
(dp2054
g6
I1
sg7
S'POS'
p2055
sg9
S'NNP'
p2056
sg11
(dp2057
sbssbsS'general'
p2058
g0
(g1
g2
Ntp2059
Rp2060
(dp2061
g6
I1
sg7
S'Word'
p2062
sg9
S'general'
p2063
sg11
(dp2064
S'NNP'
p2065
g0
(g1
g2
Ntp2066
Rp2067
(dp2068
g6
I1
sg7
S'POS'
p2069
sg9
S'NNP'
p2070
sg11
(dp2071
sbssbssbsS'Settle Loan'
p2072
g0
(g1
g2
Ntp2073
Rp2074
(dp2075
g6
I1
sg7
S'Target'
p2076
sg9
S'Settle Loan'
p2077
sg11
(dp2078
S'settle'
p2079
g0
(g1
g2
Ntp2080
Rp2081
(dp2082
g6
I1
sg7
S'Word'
p2083
sg9
S'settle'
p2084
sg11
(dp2085
S'NNP'
p2086
g0
(g1
g2
Ntp2087
Rp2088
(dp2089
g6
I1
sg7
S'POS'
p2090
sg9
S'NNP'
p2091
sg11
(dp2092
sbssbsS'ledger'
p2093
g0
(g1
g2
Ntp2094
Rp2095
(dp2096
g6
I1
sg7
S'Word'
p2097
sg9
S'ledger'
p2098
sg11
(dp2099
S'NNP'
p2100
g0
(g1
g2
Ntp2101
Rp2102
(dp2103
g6
I1
sg7
S'POS'
p2104
sg9
S'NNP'
p2105
sg11
(dp2106
sbssbsS'general'
p2107
g0
(g1
g2
Ntp2108
Rp2109
(dp2110
g6
I1
sg7
S'Word'
p2111
sg9
S'general'
p2112
sg11
(dp2113
S'NNP'
p2114
g0
(g1
g2
Ntp2115
Rp2116
(dp2117
g6
I1
sg7
S'POS'
p2118
sg9
S'NNP'
p2119
sg11
(dp2120
sbssbssbsS'Settle Title Agency'
p2121
g0
(g1
g2
Ntp2122
Rp2123
(dp2124
g6
I1
sg7
S'Target'
p2125
sg9
S'Settle Title Agency'
p2126
sg11
(dp2127
S'settle'
p2128
g0
(g1
g2
Ntp2129
Rp2130
(dp2131
g6
I1
sg7
S'Word'
p2132
sg9
S'settle'
p2133
sg11
(dp2134
S'NNP'
p2135
g0
(g1
g2
Ntp2136
Rp2137
(dp2138
g6
I1
sg7
S'POS'
p2139
sg9
S'NNP'
p2140
sg11
(dp2141
sbssbsS'ledger'
p2142
g0
(g1
g2
Ntp2143
Rp2144
(dp2145
g6
I1
sg7
S'Word'
p2146
sg9
S'ledger'
p2147
sg11
(dp2148
S'NNP'
p2149
g0
(g1
g2
Ntp2150
Rp2151
(dp2152
g6
I1
sg7
S'POS'
p2153
sg9
S'NNP'
p2154
sg11
(dp2155
sbssbsS'general'
p2156
g0
(g1
g2
Ntp2157
Rp2158
(dp2159
g6
I1
sg7
S'Word'
p2160
sg9
S'general'
p2161
sg11
(dp2162
S'NNP'
p2163
g0
(g1
g2
Ntp2164
Rp2165
(dp2166
g6
I1
sg7
S'POS'
p2167
sg9
S'NNP'
p2168
sg11
(dp2169
sbssbssbssbssbsS'Assign Inventory Freeze to Contract'
p2170
g377
sS'Collect Member Wish'
p2171
g0
(g1
g2
Ntp2172
Rp2173
(dp2174
g6
I1
sg7
S'Source'
p2175
sg9
S'Collect Member Wish'
p2176
sg11
(dp2177
S'member'
p2178
g0
(g1
g2
Ntp2179
Rp2180
(dp2181
g6
I1
sg7
S'Word'
p2182
sg9
S'member'
p2183
sg11
(dp2184
S'NNP'
p2185
g0
(g1
g2
Ntp2186
Rp2187
(dp2188
g6
I1
sg7
S'POS'
p2189
sg9
S'NNP'
p2190
sg11
(dp2191
sbssbsS'collect'
p2192
g0
(g1
g2
Ntp2193
Rp2194
(dp2195
g6
I1
sg7
S'Word'
p2196
sg9
S'collect'
p2197
sg11
(dp2198
S'NNP'
p2199
g0
(g1
g2
Ntp2200
Rp2201
(dp2202
g6
I1
sg7
S'POS'
p2203
sg9
S'NNP'
p2204
sg11
(dp2205
sbssbsS'Apply Points for Reservation'
p2206
g0
(g1
g2
Ntp2207
Rp2208
(dp2209
g6
I1
sg7
S'Target'
p2210
sg9
S'Apply Points for Reservation'
p2211
sg11
(dp2212
S'member'
p2213
g0
(g1
g2
Ntp2214
Rp2215
(dp2216
g6
I1
sg7
S'Word'
p2217
sg9
S'member'
p2218
sg11
(dp2219
S'NNP'
p2220
g0
(g1
g2
Ntp2221
Rp2222
(dp2223
g6
I1
sg7
S'POS'
p2224
sg9
S'NNP'
p2225
sg11
(dp2226
sbssbsS'collect'
p2227
g0
(g1
g2
Ntp2228
Rp2229
(dp2230
g6
I1
sg7
S'Word'
p2231
sg9
S'collect'
p2232
sg11
(dp2233
S'NNP'
p2234
g0
(g1
g2
Ntp2235
Rp2236
(dp2237
g6
I1
sg7
S'POS'
p2238
sg9
S'NNP'
p2239
sg11
(dp2240
sbssbsS'wish'
p2241
g0
(g1
g2
Ntp2242
Rp2243
(dp2244
g6
I1
sg7
S'Word'
p2245
sg9
S'wish'
p2246
sg11
(dp2247
S'NNP'
p2248
g0
(g1
g2
Ntp2249
Rp2250
(dp2251
g6
I1
sg7
S'POS'
p2252
sg9
S'NNP'
p2253
sg11
(dp2254
sbssbssbsS'wish'
p2255
g0
(g1
g2
Ntp2256
Rp2257
(dp2258
g6
I1
sg7
S'Word'
p2259
sg9
S'wish'
p2260
sg11
(dp2261
S'NNP'
p2262
g0
(g1
g2
Ntp2263
Rp2264
(dp2265
g6
I1
sg7
S'POS'
p2266
sg9
S'NNP'
p2267
sg11
(dp2268
sbssbssbsS'Calculate Contract Details'
p2269
g0
(g1
g2
Ntp2270
Rp2271
(dp2272
g6
I1
sg7
S'Source'
p2273
sg9
S'Calculate Contract Details'
p2274
sg11
(dp2275
S'Deliver Contract for Signature'
p2276
g0
(g1
g2
Ntp2277
Rp2278
(dp2279
g6
I1
sg7
S'Target'
p2280
sg9
S'Deliver Contract for Signature'
p2281
sg11
(dp2282
S'calculate'
p2283
g0
(g1
g2
Ntp2284
Rp2285
(dp2286
g6
I1
sg7
S'Word'
p2287
sg9
S'calculate'
p2288
sg11
(dp2289
S'NNP'
p2290
g0
(g1
g2
Ntp2291
Rp2292
(dp2293
g6
I1
sg7
S'POS'
p2294
sg9
S'NNP'
p2295
sg11
(dp2296
sbssbsS'contract'
p2297
g0
(g1
g2
Ntp2298
Rp2299
(dp2300
g6
I1
sg7
S'Word'
p2301
sg9
S'contract'
p2302
sg11
(dp2303
S'NNP'
p2304
g0
(g1
g2
Ntp2305
Rp2306
(dp2307
g6
I1
sg7
S'POS'
p2308
sg9
S'NNP'
p2309
sg11
(dp2310
sbssbsS'detail'
p2311
g0
(g1
g2
Ntp2312
Rp2313
(dp2314
g6
I1
sg7
S'Word'
p2315
sg9
S'detail'
p2316
sg11
(dp2317
S'NNP'
p2318
g0
(g1
g2
Ntp2319
Rp2320
(dp2321
g6
I1
sg7
S'POS'
p2322
sg9
S'NNP'
p2323
sg11
(dp2324
sbssbssbsS'calculate'
p2325
g0
(g1
g2
Ntp2326
Rp2327
(dp2328
g6
I1
sg7
S'Word'
p2329
sg9
S'calculate'
p2330
sg11
(dp2331
S'NNP'
p2332
g0
(g1
g2
Ntp2333
Rp2334
(dp2335
g6
I1
sg7
S'POS'
p2336
sg9
S'NNP'
p2337
sg11
(dp2338
sbssbsS'contract'
p2339
g0
(g1
g2
Ntp2340
Rp2341
(dp2342
g6
I1
sg7
S'Word'
p2343
sg9
S'contract'
p2344
sg11
(dp2345
S'NNP'
p2346
g0
(g1
g2
Ntp2347
Rp2348
(dp2349
g6
I1
sg7
S'POS'
p2350
sg9
S'NNP'
p2351
sg11
(dp2352
sbssbsS'detail'
p2353
g0
(g1
g2
Ntp2354
Rp2355
(dp2356
g6
I1
sg7
S'Word'
p2357
sg9
S'detail'
p2358
sg11
(dp2359
S'NNP'
p2360
g0
(g1
g2
Ntp2361
Rp2362
(dp2363
g6
I1
sg7
S'POS'
p2364
sg9
S'NNP'
p2365
sg11
(dp2366
sbssbssbsS'Update Lead Contact Information'
p2367
g634
sS'Generate Operational Report'
p2368
g0
(g1
g2
Ntp2369
Rp2370
(dp2371
g6
I1
sg7
S'Source'
p2372
sg9
S'Generate Operational Report'
p2373
sg11
(dp2374
S'report'
p2375
g0
(g1
g2
Ntp2376
Rp2377
(dp2378
g6
I1
sg7
S'Word'
p2379
sg9
S'report'
p2380
sg11
(dp2381
S'NNP'
p2382
g0
(g1
g2
Ntp2383
Rp2384
(dp2385
g6
I1
sg7
S'POS'
p2386
sg9
S'NNP'
p2387
sg11
(dp2388
sbssbsS'Deliver Report'
p2389
g0
(g1
g2
Ntp2390
Rp2391
(dp2392
g6
I1
sg7
S'Target'
p2393
sg9
S'Deliver Report'
p2394
sg11
(dp2395
S'report'
p2396
g0
(g1
g2
Ntp2397
Rp2398
(dp2399
g6
I1
sg7
S'Word'
p2400
sg9
S'report'
p2401
sg11
(dp2402
S'NNP'
p2403
g0
(g1
g2
Ntp2404
Rp2405
(dp2406
g6
I1
sg7
S'POS'
p2407
sg9
S'NNP'
p2408
sg11
(dp2409
sbssbsS'generate'
p2410
g0
(g1
g2
Ntp2411
Rp2412
(dp2413
g6
I1
sg7
S'Word'
p2414
sg9
S'generate'
p2415
sg11
(dp2416
S'NNP'
p2417
g0
(g1
g2
Ntp2418
Rp2419
(dp2420
g6
I1
sg7
S'POS'
p2421
sg9
S'NNP'
p2422
sg11
(dp2423
sbssbsS'operational'
p2424
g0
(g1
g2
Ntp2425
Rp2426
(dp2427
g6
I1
sg7
S'Word'
p2428
sg9
S'operational'
p2429
sg11
(dp2430
S'NNP'
p2431
g0
(g1
g2
Ntp2432
Rp2433
(dp2434
g6
I1
sg7
S'POS'
p2435
sg9
S'NNP'
p2436
sg11
(dp2437
sbssbssbsS'generate'
p2438
g0
(g1
g2
Ntp2439
Rp2440
(dp2441
g6
I1
sg7
S'Word'
p2442
sg9
S'generate'
p2443
sg11
(dp2444
S'NNP'
p2445
g0
(g1
g2
Ntp2446
Rp2447
(dp2448
g6
I1
sg7
S'POS'
p2449
sg9
S'NNP'
p2450
sg11
(dp2451
sbssbsS'operational'
p2452
g0
(g1
g2
Ntp2453
Rp2454
(dp2455
g6
I1
sg7
S'Word'
p2456
sg9
S'operational'
p2457
sg11
(dp2458
S'NNP'
p2459
g0
(g1
g2
Ntp2460
Rp2461
(dp2462
g6
I1
sg7
S'POS'
p2463
sg9
S'NNP'
p2464
sg11
(dp2465
sbssbssbsS'Perform Contract Closing'
p2466
g0
(g1
g2
Ntp2467
Rp2468
(dp2469
g6
I1
sg7
S'Source'
p2470
sg9
S'Perform Contract Closing'
p2471
sg11
(dp2472
S'perform'
p2473
g0
(g1
g2
Ntp2474
Rp2475
(dp2476
g6
I1
sg7
S'Word'
p2477
sg9
S'perform'
p2478
sg11
(dp2479
S'NN'
p2480
g0
(g1
g2
Ntp2481
Rp2482
(dp2483
g6
I1
sg7
S'POS'
p2484
sg9
S'NN'
p2485
sg11
(dp2486
sbssbsS'closing'
p2487
g0
(g1
g2
Ntp2488
Rp2489
(dp2490
g6
I1
sg7
S'Word'
p2491
sg9
S'closing'
p2492
sg11
(dp2493
S'NNP'
p2494
g0
(g1
g2
Ntp2495
Rp2496
(dp2497
g6
I1
sg7
S'POS'
p2498
sg9
S'NNP'
p2499
sg11
(dp2500
sbssbsS'Record Deed of Contract Purchase'
p2501
g0
(g1
g2
Ntp2502
Rp2503
(dp2504
g6
I1
sg7
S'Target'
p2505
sg9
S'Record Deed of Contract Purchase'
p2506
sg11
(dp2507
S'perform'
p2508
g0
(g1
g2
Ntp2509
Rp2510
(dp2511
g6
I1
sg7
S'Word'
p2512
sg9
S'perform'
p2513
sg11
(dp2514
S'NN'
p2515
g0
(g1
g2
Ntp2516
Rp2517
(dp2518
g6
I1
sg7
S'POS'
p2519
sg9
S'NN'
p2520
sg11
(dp2521
sbssbsS'closing'
p2522
g0
(g1
g2
Ntp2523
Rp2524
(dp2525
g6
I1
sg7
S'Word'
p2526
sg9
S'closing'
p2527
sg11
(dp2528
S'NNP'
p2529
g0
(g1
g2
Ntp2530
Rp2531
(dp2532
g6
I1
sg7
S'POS'
p2533
sg9
S'NNP'
p2534
sg11
(dp2535
sbssbsS'contract'
p2536
g0
(g1
g2
Ntp2537
Rp2538
(dp2539
g6
I1
sg7
S'Word'
p2540
sg9
S'contract'
p2541
sg11
(dp2542
S'NN'
p2543
g0
(g1
g2
Ntp2544
Rp2545
(dp2546
g6
I1
sg7
S'POS'
p2547
sg9
S'NN'
p2548
sg11
(dp2549
sbssbssbsS'contract'
p2550
g0
(g1
g2
Ntp2551
Rp2552
(dp2553
g6
I1
sg7
S'Word'
p2554
sg9
S'contract'
p2555
sg11
(dp2556
S'NN'
p2557
g0
(g1
g2
Ntp2558
Rp2559
(dp2560
g6
I1
sg7
S'POS'
p2561
sg9
S'NN'
p2562
sg11
(dp2563
sbssbssbsS'Credit Referral for Contract'
p2564
g0
(g1
g2
Ntp2565
Rp2566
(dp2567
g6
I1
sg7
S'Source'
p2568
sg9
S'Credit Referral for Contract'
p2569
sg11
(dp2570
S'credit'
p2571
g0
(g1
g2
Ntp2572
Rp2573
(dp2574
g6
I1
sg7
S'Word'
p2575
sg9
S'credit'
p2576
sg11
(dp2577
S'NN'
p2578
g0
(g1
g2
Ntp2579
Rp2580
(dp2581
g6
I1
sg7
S'POS'
p2582
sg9
S'NN'
p2583
sg11
(dp2584
sbssbsS'Issue Title Insurance for Contract'
p2585
g0
(g1
g2
Ntp2586
Rp2587
(dp2588
g6
I1
sg7
S'Target'
p2589
sg9
S'Issue Title Insurance for Contract'
p2590
sg11
(dp2591
S'credit'
p2592
g0
(g1
g2
Ntp2593
Rp2594
(dp2595
g6
I1
sg7
S'Word'
p2596
sg9
S'credit'
p2597
sg11
(dp2598
S'NN'
p2599
g0
(g1
g2
Ntp2600
Rp2601
(dp2602
g6
I1
sg7
S'POS'
p2603
sg9
S'NN'
p2604
sg11
(dp2605
sbssbsS'referral'
p2606
g0
(g1
g2
Ntp2607
Rp2608
(dp2609
g6
I1
sg7
S'Word'
p2610
sg9
S'referral'
p2611
sg11
(dp2612
S'NNP'
p2613
g0
(g1
g2
Ntp2614
Rp2615
(dp2616
g6
I1
sg7
S'POS'
p2617
sg9
S'NNP'
p2618
sg11
(dp2619
sbssbsS'contract'
p2620
g0
(g1
g2
Ntp2621
Rp2622
(dp2623
g6
I1
sg7
S'Word'
p2624
sg9
S'contract'
p2625
sg11
(dp2626
S'NNP'
p2627
g0
(g1
g2
Ntp2628
Rp2629
(dp2630
g6
I1
sg7
S'POS'
p2631
sg9
S'NNP'
p2632
sg11
(dp2633
sbssbssbsS'referral'
p2634
g0
(g1
g2
Ntp2635
Rp2636
(dp2637
g6
I1
sg7
S'Word'
p2638
sg9
S'referral'
p2639
sg11
(dp2640
S'NNP'
p2641
g0
(g1
g2
Ntp2642
Rp2643
(dp2644
g6
I1
sg7
S'POS'
p2645
sg9
S'NNP'
p2646
sg11
(dp2647
sbssbsS'contract'
p2648
g0
(g1
g2
Ntp2649
Rp2650
(dp2651
g6
I1
sg7
S'Word'
p2652
sg9
S'contract'
p2653
sg11
(dp2654
S'NNP'
p2655
g0
(g1
g2
Ntp2656
Rp2657
(dp2658
g6
I1
sg7
S'POS'
p2659
sg9
S'NNP'
p2660
sg11
(dp2661
sbssbssbsS'Create Operational Report'
p2662
g0
(g1
g2
Ntp2663
Rp2664
(dp2665
g6
I1
sg7
S'Source'
p2666
sg9
S'Create Operational Report'
p2667
sg11
(dp2668
S'report'
p2669
g0
(g1
g2
Ntp2670
Rp2671
(dp2672
g6
I1
sg7
S'Word'
p2673
sg9
S'report'
p2674
sg11
(dp2675
S'NNP'
p2676
g0
(g1
g2
Ntp2677
Rp2678
(dp2679
g6
I1
sg7
S'POS'
p2680
sg9
S'NNP'
p2681
sg11
(dp2682
sbssbsS'create'
p2683
g0
(g1
g2
Ntp2684
Rp2685
(dp2686
g6
I1
sg7
S'Word'
p2687
sg9
S'create'
p2688
sg11
(dp2689
S'NNP'
p2690
g0
(g1
g2
Ntp2691
Rp2692
(dp2693
g6
I1
sg7
S'POS'
p2694
sg9
S'NNP'
p2695
sg11
(dp2696
sbssbsg1463
g1460
sS'operational'
p2697
g0
(g1
g2
Ntp2698
Rp2699
(dp2700
g6
I1
sg7
S'Word'
p2701
sg9
S'operational'
p2702
sg11
(dp2703
S'NNP'
p2704
g0
(g1
g2
Ntp2705
Rp2706
(dp2707
g6
I1
sg7
S'POS'
p2708
sg9
S'NNP'
p2709
sg11
(dp2710
sbssbssbsS'Start Contract Creation from Proposal'
p2711
g0
(g1
g2
Ntp2712
Rp2713
(dp2714
g6
I1
sg7
S'Source'
p2715
sg9
S'Start Contract Creation from Proposal'
p2716
sg11
(dp2717
S'start'
p2718
g0
(g1
g2
Ntp2719
Rp2720
(dp2721
g6
I1
sg7
S'Word'
p2722
sg9
S'start'
p2723
sg11
(dp2724
S'NNP'
p2725
g0
(g1
g2
Ntp2726
Rp2727
(dp2728
g6
I1
sg7
S'POS'
p2729
sg9
S'NNP'
p2730
sg11
(dp2731
sbssbsS'proposal'
p2732
g0
(g1
g2
Ntp2733
Rp2734
(dp2735
g6
I1
sg7
S'Word'
p2736
sg9
S'proposal'
p2737
sg11
(dp2738
S'NNP'
p2739
g0
(g1
g2
Ntp2740
Rp2741
(dp2742
g6
I1
sg7
S'POS'
p2743
sg9
S'NNP'
p2744
sg11
(dp2745
sbssbsS'creation'
p2746
g0
(g1
g2
Ntp2747
Rp2748
(dp2749
g6
I1
sg7
S'Word'
p2750
sg9
S'creation'
p2751
sg11
(dp2752
S'NNP'
p2753
g0
(g1
g2
Ntp2754
Rp2755
(dp2756
g6
I1
sg7
S'POS'
p2757
sg9
S'NNP'
p2758
sg11
(dp2759
sbssbsS'Collect Contract Deposit'
p2760
g0
(g1
g2
Ntp2761
Rp2762
(dp2763
g6
I1
sg7
S'Source'
p2764
sg9
g2760
sg11
(dp2765
S'collect'
p2766
g0
(g1
g2
Ntp2767
Rp2768
(dp2769
g6
I1
sg7
S'Word'
p2770
sg9
S'collect'
p2771
sg11
(dp2772
S'NNP'
p2773
g0
(g1
g2
Ntp2774
Rp2775
(dp2776
g6
I1
sg7
S'POS'
p2777
sg9
S'NNP'
p2778
sg11
(dp2779
sbssbsS'Setup Recurring Payments'
p2780
g0
(g1
g2
Ntp2781
Rp2782
(dp2783
g6
I1
sg7
S'Target'
p2784
sg9
S'Setup Recurring Payments'
p2785
sg11
(dp2786
S'collect'
p2787
g0
(g1
g2
Ntp2788
Rp2789
(dp2790
g6
I1
sg7
S'Word'
p2791
sg9
S'collect'
p2792
sg11
(dp2793
S'NNP'
p2794
g0
(g1
g2
Ntp2795
Rp2796
(dp2797
g6
I1
sg7
S'POS'
p2798
sg9
S'NNP'
p2799
sg11
(dp2800
sbssbsS'deposit'
p2801
g0
(g1
g2
Ntp2802
Rp2803
(dp2804
g6
I1
sg7
S'Word'
p2805
sg9
S'deposit'
p2806
sg11
(dp2807
S'NNP'
p2808
g0
(g1
g2
Ntp2809
Rp2810
(dp2811
g6
I1
sg7
S'POS'
p2812
sg9
S'NNP'
p2813
sg11
(dp2814
sbssbsS'contract'
p2815
g0
(g1
g2
Ntp2816
Rp2817
(dp2818
g6
I1
sg7
S'Word'
p2819
sg9
S'contract'
p2820
sg11
(dp2821
S'NNP'
p2822
g0
(g1
g2
Ntp2823
Rp2824
(dp2825
g6
I1
sg7
S'POS'
p2826
sg9
S'NNP'
p2827
sg11
(dp2828
sbssbssbsS'deposit'
p2829
g0
(g1
g2
Ntp2830
Rp2831
(dp2832
g6
I1
sg7
S'Word'
p2833
sg9
S'deposit'
p2834
sg11
(dp2835
S'NNP'
p2836
g0
(g1
g2
Ntp2837
Rp2838
(dp2839
g6
I1
sg7
S'POS'
p2840
sg9
S'NNP'
p2841
sg11
(dp2842
sbssbsS'contract'
p2843
g0
(g1
g2
Ntp2844
Rp2845
(dp2846
g6
I1
sg7
S'Word'
p2847
sg9
S'contract'
p2848
sg11
(dp2849
S'NNP'
p2850
g0
(g1
g2
Ntp2851
Rp2852
(dp2853
g6
I1
sg7
S'POS'
p2854
sg9
S'NNP'
p2855
sg11
(dp2856
sbssbssbsS'contract'
p2857
g0
(g1
g2
Ntp2858
Rp2859
(dp2860
g6
I1
sg7
S'Word'
p2861
sg9
S'contract'
p2862
sg11
(dp2863
S'NNP'
p2864
g0
(g1
g2
Ntp2865
Rp2866
(dp2867
g6
I1
sg7
S'POS'
p2868
sg9
S'NNP'
p2869
sg11
(dp2870
sbssbssbsS'Create Report'
p2871
g0
(g1
g2
Ntp2872
Rp2873
(dp2874
g6
I1
sg7
S'Source'
p2875
sg9
S'Create Report'
p2876
sg11
(dp2877
S'report'
p2878
g0
(g1
g2
Ntp2879
Rp2880
(dp2881
g6
I1
sg7
S'Word'
p2882
sg9
S'report'
p2883
sg11
(dp2884
S'NNP'
p2885
g0
(g1
g2
Ntp2886
Rp2887
(dp2888
g6
I1
sg7
S'POS'
p2889
sg9
S'NNP'
p2890
sg11
(dp2891
sbssbsS'create'
p2892
g0
(g1
g2
Ntp2893
Rp2894
(dp2895
g6
I1
sg7
S'Word'
p2896
sg9
S'create'
p2897
sg11
(dp2898
S'NNP'
p2899
g0
(g1
g2
Ntp2900
Rp2901
(dp2902
g6
I1
sg7
S'POS'
p2903
sg9
S'NNP'
p2904
sg11
(dp2905
sbssbsg1463
g1460
ssbsS'DVC Takes Back Title'
p2906
g0
(g1
g2
Ntp2907
Rp2908
(dp2909
g6
I1
sg7
S'Source'
p2910
sg9
S'DVC Takes Back Title'
p2911
sg11
(dp2912
S'Update Inventory'
p2913
g0
(g1
g2
Ntp2914
Rp2915
(dp2916
g6
I1
sg7
S'Target'
p2917
sg9
S'Update Inventory'
p2918
sg11
(dp2919
S'title'
p2920
g0
(g1
g2
Ntp2921
Rp2922
(dp2923
g6
I1
sg7
S'Word'
p2924
sg9
S'title'
p2925
sg11
(dp2926
S'NNP'
p2927
g0
(g1
g2
Ntp2928
Rp2929
(dp2930
g6
I1
sg7
S'POS'
p2931
sg9
S'NNP'
p2932
sg11
(dp2933
sbssbsS'take'
p2934
g0
(g1
g2
Ntp2935
Rp2936
(dp2937
g6
I1
sg7
S'Word'
p2938
sg9
S'take'
p2939
sg11
(dp2940
S'NNP'
p2941
g0
(g1
g2
Ntp2942
Rp2943
(dp2944
g6
I1
sg7
S'POS'
p2945
sg9
S'NNP'
p2946
sg11
(dp2947
sbssbsS'dvc'
p2948
g0
(g1
g2
Ntp2949
Rp2950
(dp2951
g6
I1
sg7
S'Word'
p2952
sg9
S'dvc'
p2953
sg11
(dp2954
S'NNP'
p2955
g0
(g1
g2
Ntp2956
Rp2957
(dp2958
g6
I1
sg7
S'POS'
p2959
sg9
S'NNP'
p2960
sg11
(dp2961
sbssbsS'back'
p2962
g0
(g1
g2
Ntp2963
Rp2964
(dp2965
g6
I1
sg7
S'Word'
p2966
sg9
S'back'
p2967
sg11
(dp2968
S'NNP'
p2969
g0
(g1
g2
Ntp2970
Rp2971
(dp2972
g6
I1
sg7
S'POS'
p2973
sg9
S'NNP'
p2974
sg11
(dp2975
sbssbssbsS'title'
p2976
g0
(g1
g2
Ntp2977
Rp2978
(dp2979
g6
I1
sg7
S'Word'
p2980
sg9
S'title'
p2981
sg11
(dp2982
S'NNP'
p2983
g0
(g1
g2
Ntp2984
Rp2985
(dp2986
g6
I1
sg7
S'POS'
p2987
sg9
S'NNP'
p2988
sg11
(dp2989
sbssbsS'take'
p2990
g0
(g1
g2
Ntp2991
Rp2992
(dp2993
g6
I1
sg7
S'Word'
p2994
sg9
S'take'
p2995
sg11
(dp2996
S'NNP'
p2997
g0
(g1
g2
Ntp2998
Rp2999
(dp3000
g6
I1
sg7
S'POS'
p3001
sg9
S'NNP'
p3002
sg11
(dp3003
sbssbsS'dvc'
p3004
g0
(g1
g2
Ntp3005
Rp3006
(dp3007
g6
I1
sg7
S'Word'
p3008
sg9
S'dvc'
p3009
sg11
(dp3010
S'NNP'
p3011
g0
(g1
g2
Ntp3012
Rp3013
(dp3014
g6
I1
sg7
S'POS'
p3015
sg9
S'NNP'
p3016
sg11
(dp3017
sbssbsS'back'
p3018
g0
(g1
g2
Ntp3019
Rp3020
(dp3021
g6
I1
sg7
S'Word'
p3022
sg9
S'back'
p3023
sg11
(dp3024
S'NNP'
p3025
g0
(g1
g2
Ntp3026
Rp3027
(dp3028
g6
I1
sg7
S'POS'
p3029
sg9
S'NNP'
p3030
sg11
(dp3031
sbssbssbsS'Review Contract Documents for Accuracy'
p3032
g0
(g1
g2
Ntp3033
Rp3034
(dp3035
g6
I1
sg7
S'Source'
p3036
sg9
S'Review Contract Documents for Accuracy'
p3037
sg11
(dp3038
S'Print out Contract Documents'
p3039
g0
(g1
g2
Ntp3040
Rp3041
(dp3042
g6
I1
sg7
S'Source'
p3043
sg9
g3039
sg11
(dp3044
S'print'
p3045
g0
(g1
g2
Ntp3046
Rp3047
(dp3048
g6
I1
sg7
S'Word'
p3049
sg9
S'print'
p3050
sg11
(dp3051
S'NNP'
p3052
g0
(g1
g2
Ntp3053
Rp3054
(dp3055
g6
I1
sg7
S'POS'
p3056
sg9
S'NNP'
p3057
sg11
(dp3058
sbssbsS'document'
p3059
g0
(g1
g2
Ntp3060
Rp3061
(dp3062
g6
I1
sg7
S'Word'
p3063
sg9
S'document'
p3064
sg11
(dp3065
S'NNP'
p3066
g0
(g1
g2
Ntp3067
Rp3068
(dp3069
g6
I1
sg7
S'POS'
p3070
sg9
S'NNP'
p3071
sg11
(dp3072
sbssbsS'Review Contract Documents for Completeness'
p3073
g0
(g1
g2
Ntp3074
Rp3075
(dp3076
g6
I1
sg7
S'Source'
p3077
sg9
g3073
sg11
(dp3078
S'Collect Escrow Deposit for Contract'
p3079
g0
(g1
g2
Ntp3080
Rp3081
(dp3082
g6
I1
sg7
S'Target'
p3083
sg9
S'Collect Escrow Deposit for Contract'
p3084
sg11
(dp3085
S'review'
p3086
g0
(g1
g2
Ntp3087
Rp3088
(dp3089
g6
I1
sg7
S'Word'
p3090
sg9
S'review'
p3091
sg11
(dp3092
S'NNP'
p3093
g0
(g1
g2
Ntp3094
Rp3095
(dp3096
g6
I1
sg7
S'POS'
p3097
sg9
S'NNP'
p3098
sg11
(dp3099
sbssbsS'document'
p3100
g0
(g1
g2
Ntp3101
Rp3102
(dp3103
g6
I1
sg7
S'Word'
p3104
sg9
S'document'
p3105
sg11
(dp3106
S'NNP'
p3107
g0
(g1
g2
Ntp3108
Rp3109
(dp3110
g6
I1
sg7
S'POS'
p3111
sg9
S'NNP'
p3112
sg11
(dp3113
sbssbsS'completeness'
p3114
g0
(g1
g2
Ntp3115
Rp3116
(dp3117
g6
I1
sg7
S'Word'
p3118
sg9
S'completeness'
p3119
sg11
(dp3120
S'NNP'
p3121
g0
(g1
g2
Ntp3122
Rp3123
(dp3124
g6
I1
sg7
S'POS'
p3125
sg9
S'NNP'
p3126
sg11
(dp3127
sbssbsS'contract'
p3128
g0
(g1
g2
Ntp3129
Rp3130
(dp3131
g6
I1
sg7
S'Word'
p3132
sg9
S'contract'
p3133
sg11
(dp3134
S'NNP'
p3135
g0
(g1
g2
Ntp3136
Rp3137
(dp3138
g6
I1
sg7
S'POS'
p3139
sg9
S'NNP'
p3140
sg11
(dp3141
sbssbssbsS'review'
p3142
g0
(g1
g2
Ntp3143
Rp3144
(dp3145
g6
I1
sg7
S'Word'
p3146
sg9
S'review'
p3147
sg11
(dp3148
S'NNP'
p3149
g0
(g1
g2
Ntp3150
Rp3151
(dp3152
g6
I1
sg7
S'POS'
p3153
sg9
S'NNP'
p3154
sg11
(dp3155
sbssbsS'document'
p3156
g0
(g1
g2
Ntp3157
Rp3158
(dp3159
g6
I1
sg7
S'Word'
p3160
sg9
S'document'
p3161
sg11
(dp3162
S'NNP'
p3163
g0
(g1
g2
Ntp3164
Rp3165
(dp3166
g6
I1
sg7
S'POS'
p3167
sg9
S'NNP'
p3168
sg11
(dp3169
sbssbsS'completeness'
p3170
g0
(g1
g2
Ntp3171
Rp3172
(dp3173
g6
I1
sg7
S'Word'
p3174
sg9
S'completeness'
p3175
sg11
(dp3176
S'NNP'
p3177
g0
(g1
g2
Ntp3178
Rp3179
(dp3180
g6
I1
sg7
S'POS'
p3181
sg9
S'NNP'
p3182
sg11
(dp3183
sbssbsS'contract'
p3184
g0
(g1
g2
Ntp3185
Rp3186
(dp3187
g6
I1
sg7
S'Word'
p3188
sg9
S'contract'
p3189
sg11
(dp3190
S'NNP'
p3191
g0
(g1
g2
Ntp3192
Rp3193
(dp3194
g6
I1
sg7
S'POS'
p3195
sg9
S'NNP'
p3196
sg11
(dp3197
sbssbssbsS'contract'
p3198
g0
(g1
g2
Ntp3199
Rp3200
(dp3201
g6
I1
sg7
S'Word'
p3202
sg9
S'contract'
p3203
sg11
(dp3204
S'NNP'
p3205
g0
(g1
g2
Ntp3206
Rp3207
(dp3208
g6
I1
sg7
S'POS'
p3209
sg9
S'NNP'
p3210
sg11
(dp3211
sbssbssbsS'review'
p3212
g0
(g1
g2
Ntp3213
Rp3214
(dp3215
g6
I1
sg7
S'Word'
p3216
sg9
S'review'
p3217
sg11
(dp3218
S'NNP'
p3219
g0
(g1
g2
Ntp3220
Rp3221
(dp3222
g6
I1
sg7
S'POS'
p3223
sg9
S'NNP'
p3224
sg11
(dp3225
sbssbsS'document'
p3226
g0
(g1
g2
Ntp3227
Rp3228
(dp3229
g6
I1
sg7
S'Word'
p3230
sg9
S'document'
p3231
sg11
(dp3232
S'NNP'
p3233
g0
(g1
g2
Ntp3234
Rp3235
(dp3236
g6
I1
sg7
S'POS'
p3237
sg9
S'NNP'
p3238
sg11
(dp3239
sbssbsS'contract'
p3240
g0
(g1
g2
Ntp3241
Rp3242
(dp3243
g6
I1
sg7
S'Word'
p3244
sg9
S'contract'
p3245
sg11
(dp3246
S'NNP'
p3247
g0
(g1
g2
Ntp3248
Rp3249
(dp3250
g6
I1
sg7
S'POS'
p3251
sg9
S'NNP'
p3252
sg11
(dp3253
sbssbsS'accuracy'
p3254
g0
(g1
g2
Ntp3255
Rp3256
(dp3257
g6
I1
sg7
S'Word'
p3258
sg9
S'accuracy'
p3259
sg11
(dp3260
S'NNP'
p3261
g0
(g1
g2
Ntp3262
Rp3263
(dp3264
g6
I1
sg7
S'POS'
p3265
sg9
S'NNP'
p3266
sg11
(dp3267
sbssbssbsS'Petition Court for Settlement'
p3268
g0
(g1
g2
Ntp3269
Rp3270
(dp3271
g6
I1
sg7
S'Source'
p3272
sg9
S'Petition Court for Settlement'
p3273
sg11
(dp3274
S'settlement'
p3275
g0
(g1
g2
Ntp3276
Rp3277
(dp3278
g6
I1
sg7
S'Word'
p3279
sg9
S'settlement'
p3280
sg11
(dp3281
S'NNP'
p3282
g0
(g1
g2
Ntp3283
Rp3284
(dp3285
g6
I1
sg7
S'POS'
p3286
sg9
S'NNP'
p3287
sg11
(dp3288
sbssbsS'court'
p3289
g0
(g1
g2
Ntp3290
Rp3291
(dp3292
g6
I1
sg7
S'Word'
p3293
sg9
S'court'
p3294
sg11
(dp3295
S'NNP'
p3296
g0
(g1
g2
Ntp3297
Rp3298
(dp3299
g6
I1
sg7
S'POS'
p3300
sg9
S'NNP'
p3301
sg11
(dp3302
sbssbsS'Bankruptcy Court Judgement'
p3303
g0
(g1
g2
Ntp3304
Rp3305
(dp3306
g6
I1
sg7
S'Source'
p3307
sg9
g3303
sg11
(dp3308
S'judgement'
p3309
g0
(g1
g2
Ntp3310
Rp3311
(dp3312
g6
I1
sg7
S'Word'
p3313
sg9
S'judgement'
p3314
sg11
(dp3315
S'NNP'
p3316
g0
(g1
g2
Ntp3317
Rp3318
(dp3319
g6
I1
sg7
S'POS'
p3320
sg9
S'NNP'
p3321
sg11
(dp3322
sbssbsg18
g15
sS'Determine if DVC execute Right-of-First Refusal'
p3323
g0
(g1
g2
Ntp3324
Rp3325
(dp3326
g6
I1
sg7
S'Target'
p3327
sg9
S'Determine if DVC execute Right-of-First Refusal'
p3328
sg11
(dp3329
S'judgement'
p3330
g0
(g1
g2
Ntp3331
Rp3332
(dp3333
g6
I1
sg7
S'Word'
p3334
sg9
S'judgement'
p3335
sg11
(dp3336
S'NNP'
p3337
g0
(g1
g2
Ntp3338
Rp3339
(dp3340
g6
I1
sg7
S'POS'
p3341
sg9
S'NNP'
p3342
sg11
(dp3343
sbssbsS'court'
p3344
g0
(g1
g2
Ntp3345
Rp3346
(dp3347
g6
I1
sg7
S'Word'
p3348
sg9
S'court'
p3349
sg11
(dp3350
S'NNP'
p3351
g0
(g1
g2
Ntp3352
Rp3353
(dp3354
g6
I1
sg7
S'POS'
p3355
sg9
S'NNP'
p3356
sg11
(dp3357
sbssbsS'bankruptcy'
p3358
g0
(g1
g2
Ntp3359
Rp3360
(dp3361
g6
I1
sg7
S'Word'
p3362
sg9
S'bankruptcy'
p3363
sg11
(dp3364
S'NNP'
p3365
g0
(g1
g2
Ntp3366
Rp3367
(dp3368
g6
I1
sg7
S'POS'
p3369
sg9
S'NNP'
p3370
sg11
(dp3371
sbssbssbsS'court'
p3372
g0
(g1
g2
Ntp3373
Rp3374
(dp3375
g6
I1
sg7
S'Word'
p3376
sg9
S'court'
p3377
sg11
(dp3378
S'NNP'
p3379
g0
(g1
g2
Ntp3380
Rp3381
(dp3382
g6
I1
sg7
S'POS'
p3383
sg9
S'NNP'
p3384
sg11
(dp3385
sbssbsS'bankruptcy'
p3386
g0
(g1
g2
Ntp3387
Rp3388
(dp3389
g6
I1
sg7
S'Word'
p3390
sg9
S'bankruptcy'
p3391
sg11
(dp3392
S'NNP'
p3393
g0
(g1
g2
Ntp3394
Rp3395
(dp3396
g6
I1
sg7
S'POS'
p3397
sg9
S'NNP'
p3398
sg11
(dp3399
sbssbssbsS'petition'
p3400
g0
(g1
g2
Ntp3401
Rp3402
(dp3403
g6
I1
sg7
S'Word'
p3404
sg9
S'petition'
p3405
sg11
(dp3406
S'NN'
p3407
g0
(g1
g2
Ntp3408
Rp3409
(dp3410
g6
I1
sg7
S'POS'
p3411
sg9
S'NN'
p3412
sg11
(dp3413
sbssbssbsS'Setup Recurring Payments'
p3414
g0
(g1
g2
Ntp3415
Rp3416
(dp3417
g6
I1
sg7
S'Source'
p3418
sg9
S'Setup Recurring Payments'
p3419
sg11
(dp3420
S'setup'
p3421
g0
(g1
g2
Ntp3422
Rp3423
(dp3424
g6
I1
sg7
S'Word'
p3425
sg9
S'setup'
p3426
sg11
(dp3427
S'NNP'
p3428
g0
(g1
g2
Ntp3429
Rp3430
(dp3431
g6
I1
sg7
S'POS'
p3432
sg9
S'NNP'
p3433
sg11
(dp3434
sbssbsS'recurring'
p3435
g0
(g1
g2
Ntp3436
Rp3437
(dp3438
g6
I1
sg7
S'Word'
p3439
sg9
S'recurring'
p3440
sg11
(dp3441
S'NNP'
p3442
g0
(g1
g2
Ntp3443
Rp3444
(dp3445
g6
I1
sg7
S'POS'
p3446
sg9
S'NNP'
p3447
sg11
(dp3448
sbssbsS'payment'
p3449
g0
(g1
g2
Ntp3450
Rp3451
(dp3452
g6
I1
sg7
S'Word'
p3453
sg9
S'payment'
p3454
sg11
(dp3455
S'NNP'
p3456
g0
(g1
g2
Ntp3457
Rp3458
(dp3459
g6
I1
sg7
S'POS'
p3460
sg9
S'NNP'
p3461
sg11
(dp3462
sbssbsS'Collect Contract Details'
p3463
g0
(g1
g2
Ntp3464
Rp3465
(dp3466
g6
I1
sg7
S'Source'
p3467
sg9
g3463
sg11
(dp3468
S'collect'
p3469
g0
(g1
g2
Ntp3470
Rp3471
(dp3472
g6
I1
sg7
S'Word'
p3473
sg9
S'collect'
p3474
sg11
(dp3475
S'NNP'
p3476
g0
(g1
g2
Ntp3477
Rp3478
(dp3479
g6
I1
sg7
S'POS'
p3480
sg9
S'NNP'
p3481
sg11
(dp3482
sbssbsg311
g308
sS'detail'
p3483
g0
(g1
g2
Ntp3484
Rp3485
(dp3486
g6
I1
sg7
S'Word'
p3487
sg9
S'detail'
p3488
sg11
(dp3489
S'NNP'
p3490
g0
(g1
g2
Ntp3491
Rp3492
(dp3493
g6
I1
sg7
S'POS'
p3494
sg9
S'NNP'
p3495
sg11
(dp3496
sbssbsS'contract'
p3497
g0
(g1
g2
Ntp3498
Rp3499
(dp3500
g6
I1
sg7
S'Word'
p3501
sg9
S'contract'
p3502
sg11
(dp3503
S'NNP'
p3504
g0
(g1
g2
Ntp3505
Rp3506
(dp3507
g6
I1
sg7
S'POS'
p3508
sg9
S'NNP'
p3509
sg11
(dp3510
sbssbssbssbsS'Post Member Loan Payment'
p3511
g0
(g1
g2
Ntp3512
Rp3513
(dp3514
g6
I1
sg7
S'Source'
p3515
sg9
S'Post Member Loan Payment'
p3516
sg11
(dp3517
S'member'
p3518
g0
(g1
g2
Ntp3519
Rp3520
(dp3521
g6
I1
sg7
S'Word'
p3522
sg9
S'member'
p3523
sg11
(dp3524
S'NNP'
p3525
g0
(g1
g2
Ntp3526
Rp3527
(dp3528
g6
I1
sg7
S'POS'
p3529
sg9
S'NNP'
p3530
sg11
(dp3531
sbssbsS'post'
p3532
g0
(g1
g2
Ntp3533
Rp3534
(dp3535
g6
I1
sg7
S'Word'
p3536
sg9
S'post'
p3537
sg11
(dp3538
S'NNP'
p3539
g0
(g1
g2
Ntp3540
Rp3541
(dp3542
g6
I1
sg7
S'POS'
p3543
sg9
S'NNP'
p3544
sg11
(dp3545
sbssbsS'Reconcile Journals'
p3546
g0
(g1
g2
Ntp3547
Rp3548
(dp3549
g6
I1
sg7
S'Target'
p3550
sg9
S'Reconcile Journals'
p3551
sg11
(dp3552
S'member'
p3553
g0
(g1
g2
Ntp3554
Rp3555
(dp3556
g6
I1
sg7
S'Word'
p3557
sg9
S'member'
p3558
sg11
(dp3559
S'NNP'
p3560
g0
(g1
g2
Ntp3561
Rp3562
(dp3563
g6
I1
sg7
S'POS'
p3564
sg9
S'NNP'
p3565
sg11
(dp3566
sbssbsS'post'
p3567
g0
(g1
g2
Ntp3568
Rp3569
(dp3570
g6
I1
sg7
S'Word'
p3571
sg9
S'post'
p3572
sg11
(dp3573
S'NNP'
p3574
g0
(g1
g2
Ntp3575
Rp3576
(dp3577
g6
I1
sg7
S'POS'
p3578
sg9
S'NNP'
p3579
sg11
(dp3580
sbssbsS'loan'
p3581
g0
(g1
g2
Ntp3582
Rp3583
(dp3584
g6
I1
sg7
S'Word'
p3585
sg9
S'loan'
p3586
sg11
(dp3587
S'NNP'
p3588
g0
(g1
g2
Ntp3589
Rp3590
(dp3591
g6
I1
sg7
S'POS'
p3592
sg9
S'NNP'
p3593
sg11
(dp3594
sbssbsS'payment'
p3595
g0
(g1
g2
Ntp3596
Rp3597
(dp3598
g6
I1
sg7
S'Word'
p3599
sg9
S'payment'
p3600
sg11
(dp3601
S'NNP'
p3602
g0
(g1
g2
Ntp3603
Rp3604
(dp3605
g6
I1
sg7
S'POS'
p3606
sg9
S'NNP'
p3607
sg11
(dp3608
sbssbssbsS'loan'
p3609
g0
(g1
g2
Ntp3610
Rp3611
(dp3612
g6
I1
sg7
S'Word'
p3613
sg9
S'loan'
p3614
sg11
(dp3615
S'NNP'
p3616
g0
(g1
g2
Ntp3617
Rp3618
(dp3619
g6
I1
sg7
S'POS'
p3620
sg9
S'NNP'
p3621
sg11
(dp3622
sbssbsS'payment'
p3623
g0
(g1
g2
Ntp3624
Rp3625
(dp3626
g6
I1
sg7
S'Word'
p3627
sg9
S'payment'
p3628
sg11
(dp3629
S'NNP'
p3630
g0
(g1
g2
Ntp3631
Rp3632
(dp3633
g6
I1
sg7
S'POS'
p3634
sg9
S'NNP'
p3635
sg11
(dp3636
sbssbssbsS'Collect Contract Deposit'
p3637
g2762
sS'Print out Contract Documents'
p3638
g3041
sS'Recieve Notification of Member Bankrupty'
p3639
g0
(g1
g2
Ntp3640
Rp3641
(dp3642
g6
I1
sg7
S'Source'
p3643
sg9
S'Recieve Notification of Member Bankrupty'
p3644
sg11
(dp3645
S'recieve'
p3646
g0
(g1
g2
Ntp3647
Rp3648
(dp3649
g6
I1
sg7
S'Word'
p3650
sg9
S'recieve'
p3651
sg11
(dp3652
S'NNP'
p3653
g0
(g1
g2
Ntp3654
Rp3655
(dp3656
g6
I1
sg7
S'POS'
p3657
sg9
S'NNP'
p3658
sg11
(dp3659
sbssbsS'notification'
p3660
g0
(g1
g2
Ntp3661
Rp3662
(dp3663
g6
I1
sg7
S'Word'
p3664
sg9
S'notification'
p3665
sg11
(dp3666
S'NNP'
p3667
g0
(g1
g2
Ntp3668
Rp3669
(dp3670
g6
I1
sg7
S'POS'
p3671
sg9
S'NNP'
p3672
sg11
(dp3673
sbssbsS'Contact Members'
p3674
g0
(g1
g2
Ntp3675
Rp3676
(dp3677
g6
I1
sg7
S'Source'
p3678
sg9
g3674
sg11
(dp3679
S'member'
p3680
g0
(g1
g2
Ntp3681
Rp3682
(dp3683
g6
I1
sg7
S'Word'
p3684
sg9
S'member'
p3685
sg11
(dp3686
S'NNS'
p3687
g0
(g1
g2
Ntp3688
Rp3689
(dp3690
g6
I1
sg7
S'POS'
p3691
sg9
S'NNS'
p3692
sg11
(dp3693
sbssbsg18
g15
sS'Petition Court for Settlement'
p3694
g0
(g1
g2
Ntp3695
Rp3696
(dp3697
g6
I1
sg7
S'Target'
p3698
sg9
S'Petition Court for Settlement'
p3699
sg11
(dp3700
S'member'
p3701
g0
(g1
g2
Ntp3702
Rp3703
(dp3704
g6
I1
sg7
S'Word'
p3705
sg9
S'member'
p3706
sg11
(dp3707
S'NNS'
p3708
g0
(g1
g2
Ntp3709
Rp3710
(dp3711
g6
I1
sg7
S'POS'
p3712
sg9
S'NNS'
p3713
sg11
(dp3714
sbssbsS'contact'
p3715
g0
(g1
g2
Ntp3716
Rp3717
(dp3718
g6
I1
sg7
S'Word'
p3719
sg9
S'contact'
p3720
sg11
(dp3721
S'NN'
p3722
g0
(g1
g2
Ntp3723
Rp3724
(dp3725
g6
I1
sg7
S'POS'
p3726
sg9
S'NN'
p3727
sg11
(dp3728
sbssbssbsS'contact'
p3729
g0
(g1
g2
Ntp3730
Rp3731
(dp3732
g6
I1
sg7
S'Word'
p3733
sg9
S'contact'
p3734
sg11
(dp3735
S'NN'
p3736
g0
(g1
g2
Ntp3737
Rp3738
(dp3739
g6
I1
sg7
S'POS'
p3740
sg9
S'NN'
p3741
sg11
(dp3742
sbssbsS'Present Foreclosre Documents to Court'
p3743
g0
(g1
g2
Ntp3744
Rp3745
(dp3746
g6
I1
sg7
S'Target'
p3747
sg9
S'Present Foreclosre Documents to Court'
p3748
sg11
(dp3749
S'member'
p3750
g0
(g1
g2
Ntp3751
Rp3752
(dp3753
g6
I1
sg7
S'Word'
p3754
sg9
S'member'
p3755
sg11
(dp3756
S'NNS'
p3757
g0
(g1
g2
Ntp3758
Rp3759
(dp3760
g6
I1
sg7
S'POS'
p3761
sg9
S'NNS'
p3762
sg11
(dp3763
sbssbsS'contact'
p3764
g0
(g1
g2
Ntp3765
Rp3766
(dp3767
g6
I1
sg7
S'Word'
p3768
sg9
S'contact'
p3769
sg11
(dp3770
S'NN'
p3771
g0
(g1
g2
Ntp3772
Rp3773
(dp3774
g6
I1
sg7
S'POS'
p3775
sg9
S'NN'
p3776
sg11
(dp3777
sbssbssbssbsS'member'
p3778
g0
(g1
g2
Ntp3779
Rp3780
(dp3781
g6
I1
sg7
S'Word'
p3782
sg9
S'member'
p3783
sg11
(dp3784
S'NNP'
p3785
g0
(g1
g2
Ntp3786
Rp3787
(dp3788
g6
I1
sg7
S'POS'
p3789
sg9
S'NNP'
p3790
sg11
(dp3791
sbssbsS'bankrupty'
p3792
g0
(g1
g2
Ntp3793
Rp3794
(dp3795
g6
I1
sg7
S'Word'
p3796
sg9
S'bankrupty'
p3797
sg11
(dp3798
S'NNP'
p3799
g0
(g1
g2
Ntp3800
Rp3801
(dp3802
g6
I1
sg7
S'POS'
p3803
sg9
S'NNP'
p3804
sg11
(dp3805
sbssbssbsS'Contract Management'
p3806
g0
(g1
g2
Ntp3807
Rp3808
(dp3809
g6
I1
sg7
S'Source'
p3810
sg9
S'Contract Management'
p3811
sg11
(dp3812
g1090
g1087
sS'management'
p3813
g0
(g1
g2
Ntp3814
Rp3815
(dp3816
g6
I1
sg7
S'Word'
p3817
sg9
S'management'
p3818
sg11
(dp3819
S'NN'
p3820
g0
(g1
g2
Ntp3821
Rp3822
(dp3823
g6
I1
sg7
S'POS'
p3824
sg9
S'NN'
p3825
sg11
(dp3826
sbssbsS'Reporting'
p3827
g0
(g1
g2
Ntp3828
Rp3829
(dp3830
g6
I1
sg7
S'Target'
p3831
sg9
S'Reporting'
p3832
sg11
(dp3833
S'management'
p3834
g0
(g1
g2
Ntp3835
Rp3836
(dp3837
g6
I1
sg7
S'Word'
p3838
sg9
S'management'
p3839
sg11
(dp3840
S'NN'
p3841
g0
(g1
g2
Ntp3842
Rp3843
(dp3844
g6
I1
sg7
S'POS'
p3845
sg9
S'NN'
p3846
sg11
(dp3847
sbssbsS'contract'
p3848
g0
(g1
g2
Ntp3849
Rp3850
(dp3851
g6
I1
sg7
S'Word'
p3852
sg9
S'contract'
p3853
sg11
(dp3854
S'NN'
p3855
g0
(g1
g2
Ntp3856
Rp3857
(dp3858
g6
I1
sg7
S'POS'
p3859
sg9
S'NN'
p3860
sg11
(dp3861
sbssbssbsS'contract'
p3862
g0
(g1
g2
Ntp3863
Rp3864
(dp3865
g6
I1
sg7
S'Word'
p3866
sg9
S'contract'
p3867
sg11
(dp3868
S'NN'
p3869
g0
(g1
g2
Ntp3870
Rp3871
(dp3872
g6
I1
sg7
S'POS'
p3873
sg9
S'NN'
p3874
sg11
(dp3875
sbssbssbsS'Review Contract Documents for Completeness'
p3876
g3075
sS'Post Bond'
p3877
g0
(g1
g2
Ntp3878
Rp3879
(dp3880
g6
I1
sg7
S'Source'
p3881
sg9
S'Post Bond'
p3882
sg11
(dp3883
S'post'
p3884
g0
(g1
g2
Ntp3885
Rp3886
(dp3887
g6
I1
sg7
S'Word'
p3888
sg9
S'post'
p3889
sg11
(dp3890
S'NNP'
p3891
g0
(g1
g2
Ntp3892
Rp3893
(dp3894
g6
I1
sg7
S'POS'
p3895
sg9
S'NNP'
p3896
sg11
(dp3897
sbssbsS'Reconcile Journals'
p3898
g0
(g1
g2
Ntp3899
Rp3900
(dp3901
g6
I1
sg7
S'Target'
p3902
sg9
S'Reconcile Journals'
p3903
sg11
(dp3904
S'post'
p3905
g0
(g1
g2
Ntp3906
Rp3907
(dp3908
g6
I1
sg7
S'Word'
p3909
sg9
S'post'
p3910
sg11
(dp3911
S'NNP'
p3912
g0
(g1
g2
Ntp3913
Rp3914
(dp3915
g6
I1
sg7
S'POS'
p3916
sg9
S'NNP'
p3917
sg11
(dp3918
sbssbsS'bond'
p3919
g0
(g1
g2
Ntp3920
Rp3921
(dp3922
g6
I1
sg7
S'Word'
p3923
sg9
S'bond'
p3924
sg11
(dp3925
S'NNP'
p3926
g0
(g1
g2
Ntp3927
Rp3928
(dp3929
g6
I1
sg7
S'POS'
p3930
sg9
S'NNP'
p3931
sg11
(dp3932
sbssbssbsS'bond'
p3933
g0
(g1
g2
Ntp3934
Rp3935
(dp3936
g6
I1
sg7
S'Word'
p3937
sg9
S'bond'
p3938
sg11
(dp3939
S'NNP'
p3940
g0
(g1
g2
Ntp3941
Rp3942
(dp3943
g6
I1
sg7
S'POS'
p3944
sg9
S'NNP'
p3945
sg11
(dp3946
sbssbssbsS'Conduct Tour'
p3947
g0
(g1
g2
Ntp3948
Rp3949
(dp3950
g6
I1
sg7
S'Source'
p3951
sg9
S'Conduct Tour'
p3952
sg11
(dp3953
S'tour'
p3954
g0
(g1
g2
Ntp3955
Rp3956
(dp3957
g6
I1
sg7
S'Word'
p3958
sg9
S'tour'
p3959
sg11
(dp3960
S'NNP'
p3961
g0
(g1
g2
Ntp3962
Rp3963
(dp3964
g6
I1
sg7
S'POS'
p3965
sg9
S'NNP'
p3966
sg11
(dp3967
sbssbsS'Complete Tour'
p3968
g0
(g1
g2
Ntp3969
Rp3970
(dp3971
g6
I1
sg7
S'Target'
p3972
sg9
S'Complete Tour'
p3973
sg11
(dp3974
S'tour'
p3975
g0
(g1
g2
Ntp3976
Rp3977
(dp3978
g6
I1
sg7
S'Word'
p3979
sg9
S'tour'
p3980
sg11
(dp3981
S'NNP'
p3982
g0
(g1
g2
Ntp3983
Rp3984
(dp3985
g6
I1
sg7
S'POS'
p3986
sg9
S'NNP'
p3987
sg11
(dp3988
sbssbsS'conduct'
p3989
g0
(g1
g2
Ntp3990
Rp3991
(dp3992
g6
I1
sg7
S'Word'
p3993
sg9
S'conduct'
p3994
sg11
(dp3995
S'NN'
p3996
g0
(g1
g2
Ntp3997
Rp3998
(dp3999
g6
I1
sg7
S'POS'
p4000
sg9
S'NN'
p4001
sg11
(dp4002
sbssbssbsS'conduct'
p4003
g0
(g1
g2
Ntp4004
Rp4005
(dp4006
g6
I1
sg7
S'Word'
p4007
sg9
S'conduct'
p4008
sg11
(dp4009
S'NN'
p4010
g0
(g1
g2
Ntp4011
Rp4012
(dp4013
g6
I1
sg7
S'POS'
p4014
sg9
S'NN'
p4015
sg11
(dp4016
sbssbssbsS'Contact and Lead Management '
p4017
g0
(g1
g2
Ntp4018
Rp4019
(dp4020
g6
I1
sg7
S'Source'
p4021
sg9
S'Contact and Lead Management '
p4022
sg11
(dp4023
S'management'
p4024
g0
(g1
g2
Ntp4025
Rp4026
(dp4027
g6
I1
sg7
S'Word'
p4028
sg9
S'management'
p4029
sg11
(dp4030
S'NNP'
p4031
g0
(g1
g2
Ntp4032
Rp4033
(dp4034
g6
I1
sg7
S'POS'
p4035
sg9
S'NNP'
p4036
sg11
(dp4037
sbssbsS'contact'
p4038
g0
(g1
g2
Ntp4039
Rp4040
(dp4041
g6
I1
sg7
S'Word'
p4042
sg9
S'contact'
p4043
sg11
(dp4044
S'NN'
p4045
g0
(g1
g2
Ntp4046
Rp4047
(dp4048
g6
I1
sg7
S'POS'
p4049
sg9
S'NN'
p4050
sg11
(dp4051
sbssbsS'Reporting'
p4052
g0
(g1
g2
Ntp4053
Rp4054
(dp4055
g6
I1
sg7
S'Target'
p4056
sg9
S'Reporting'
p4057
sg11
(dp4058
S'management'
p4059
g0
(g1
g2
Ntp4060
Rp4061
(dp4062
g6
I1
sg7
S'Word'
p4063
sg9
S'management'
p4064
sg11
(dp4065
S'NNP'
p4066
g0
(g1
g2
Ntp4067
Rp4068
(dp4069
g6
I1
sg7
S'POS'
p4070
sg9
S'NNP'
p4071
sg11
(dp4072
sbssbsS'contact'
p4073
g0
(g1
g2
Ntp4074
Rp4075
(dp4076
g6
I1
sg7
S'Word'
p4077
sg9
S'contact'
p4078
sg11
(dp4079
S'NN'
p4080
g0
(g1
g2
Ntp4081
Rp4082
(dp4083
g6
I1
sg7
S'POS'
p4084
sg9
S'NN'
p4085
sg11
(dp4086
sbssbsS'lead'
p4087
g0
(g1
g2
Ntp4088
Rp4089
(dp4090
g6
I1
sg7
S'Word'
p4091
sg9
S'lead'
p4092
sg11
(dp4093
S'NNP'
p4094
g0
(g1
g2
Ntp4095
Rp4096
(dp4097
g6
I1
sg7
S'POS'
p4098
sg9
S'NNP'
p4099
sg11
(dp4100
sbssbssbsS'lead'
p4101
g0
(g1
g2
Ntp4102
Rp4103
(dp4104
g6
I1
sg7
S'Word'
p4105
sg9
S'lead'
p4106
sg11
(dp4107
S'NNP'
p4108
g0
(g1
g2
Ntp4109
Rp4110
(dp4111
g6
I1
sg7
S'POS'
p4112
sg9
S'NNP'
p4113
sg11
(dp4114
sbssbsS'Contract Preperation'
p4115
g0
(g1
g2
Ntp4116
Rp4117
(dp4118
g6
I1
sg7
S'Source'
p4119
sg9
g4115
sg11
(dp4120
g1090
g1087
sS'Reporting'
p4121
g0
(g1
g2
Ntp4122
Rp4123
(dp4124
g6
I1
sg7
S'Target'
p4125
sg9
S'Reporting'
p4126
sg11
(dp4127
S'preperation'
p4128
g0
(g1
g2
Ntp4129
Rp4130
(dp4131
g6
I1
sg7
S'Word'
p4132
sg9
S'preperation'
p4133
sg11
(dp4134
S'NN'
p4135
g0
(g1
g2
Ntp4136
Rp4137
(dp4138
g6
I1
sg7
S'POS'
p4139
sg9
S'NN'
p4140
sg11
(dp4141
sbssbsS'contract'
p4142
g0
(g1
g2
Ntp4143
Rp4144
(dp4145
g6
I1
sg7
S'Word'
p4146
sg9
S'contract'
p4147
sg11
(dp4148
S'NN'
p4149
g0
(g1
g2
Ntp4150
Rp4151
(dp4152
g6
I1
sg7
S'POS'
p4153
sg9
S'NN'
p4154
sg11
(dp4155
sbssbssbsS'preperation'
p4156
g0
(g1
g2
Ntp4157
Rp4158
(dp4159
g6
I1
sg7
S'Word'
p4160
sg9
S'preperation'
p4161
sg11
(dp4162
S'NN'
p4163
g0
(g1
g2
Ntp4164
Rp4165
(dp4166
g6
I1
sg7
S'POS'
p4167
sg9
S'NN'
p4168
sg11
(dp4169
sbssbsS'contract'
p4170
g0
(g1
g2
Ntp4171
Rp4172
(dp4173
g6
I1
sg7
S'Word'
p4174
sg9
S'contract'
p4175
sg11
(dp4176
S'NN'
p4177
g0
(g1
g2
Ntp4178
Rp4179
(dp4180
g6
I1
sg7
S'POS'
p4181
sg9
S'NN'
p4182
sg11
(dp4183
sbssbsS'Inventory Management'
p4184
g0
(g1
g2
Ntp4185
Rp4186
(dp4187
g6
I1
sg7
S'Target'
p4188
sg9
S'Inventory Management'
p4189
sg11
(dp4190
S'preperation'
p4191
g0
(g1
g2
Ntp4192
Rp4193
(dp4194
g6
I1
sg7
S'Word'
p4195
sg9
S'preperation'
p4196
sg11
(dp4197
S'NN'
p4198
g0
(g1
g2
Ntp4199
Rp4200
(dp4201
g6
I1
sg7
S'POS'
p4202
sg9
S'NN'
p4203
sg11
(dp4204
sbssbsS'contract'
p4205
g0
(g1
g2
Ntp4206
Rp4207
(dp4208
g6
I1
sg7
S'Word'
p4209
sg9
S'contract'
p4210
sg11
(dp4211
S'NN'
p4212
g0
(g1
g2
Ntp4213
Rp4214
(dp4215
g6
I1
sg7
S'POS'
p4216
sg9
S'NN'
p4217
sg11
(dp4218
sbssbssbsS'Resort Setup'
p4219
g0
(g1
g2
Ntp4220
Rp4221
(dp4222
g6
I1
sg7
S'Target'
p4223
sg9
S'Resort Setup'
p4224
sg11
(dp4225
S'preperation'
p4226
g0
(g1
g2
Ntp4227
Rp4228
(dp4229
g6
I1
sg7
S'Word'
p4230
sg9
S'preperation'
p4231
sg11
(dp4232
S'NN'
p4233
g0
(g1
g2
Ntp4234
Rp4235
(dp4236
g6
I1
sg7
S'POS'
p4237
sg9
S'NN'
p4238
sg11
(dp4239
sbssbsS'contract'
p4240
g0
(g1
g2
Ntp4241
Rp4242
(dp4243
g6
I1
sg7
S'Word'
p4244
sg9
S'contract'
p4245
sg11
(dp4246
S'NN'
p4247
g0
(g1
g2
Ntp4248
Rp4249
(dp4250
g6
I1
sg7
S'POS'
p4251
sg9
S'NN'
p4252
sg11
(dp4253
sbssbssbssbssbsS'Freeze Inventory'
p4254
g0
(g1
g2
Ntp4255
Rp4256
(dp4257
g6
I1
sg7
S'Source'
p4258
sg9
S'Freeze Inventory'
p4259
sg11
(dp4260
S'Notify Prospect on Waitlist of Availability'
p4261
g0
(g1
g2
Ntp4262
Rp4263
(dp4264
g6
I1
sg7
S'Target'
p4265
sg9
S'Notify Prospect on Waitlist of Availability'
p4266
sg11
(dp4267
S'inventory'
p4268
g0
(g1
g2
Ntp4269
Rp4270
(dp4271
g6
I1
sg7
S'Word'
p4272
sg9
S'inventory'
p4273
sg11
(dp4274
S'NNP'
p4275
g0
(g1
g2
Ntp4276
Rp4277
(dp4278
g6
I1
sg7
S'POS'
p4279
sg9
S'NNP'
p4280
sg11
(dp4281
sbssbsS'freeze'
p4282
g0
(g1
g2
Ntp4283
Rp4284
(dp4285
g6
I1
sg7
S'Word'
p4286
sg9
S'freeze'
p4287
sg11
(dp4288
S'NNP'
p4289
g0
(g1
g2
Ntp4290
Rp4291
(dp4292
g6
I1
sg7
S'POS'
p4293
sg9
S'NNP'
p4294
sg11
(dp4295
sbssbssbsS'inventory'
p4296
g0
(g1
g2
Ntp4297
Rp4298
(dp4299
g6
I1
sg7
S'Word'
p4300
sg9
S'inventory'
p4301
sg11
(dp4302
S'NNP'
p4303
g0
(g1
g2
Ntp4304
Rp4305
(dp4306
g6
I1
sg7
S'POS'
p4307
sg9
S'NNP'
p4308
sg11
(dp4309
sbssbsS'freeze'
p4310
g0
(g1
g2
Ntp4311
Rp4312
(dp4313
g6
I1
sg7
S'Word'
p4314
sg9
S'freeze'
p4315
sg11
(dp4316
S'NNP'
p4317
g0
(g1
g2
Ntp4318
Rp4319
(dp4320
g6
I1
sg7
S'POS'
p4321
sg9
S'NNP'
p4322
sg11
(dp4323
sbssbssbsS'Create Tour on Tour Schedule'
p4324
g0
(g1
g2
Ntp4325
Rp4326
(dp4327
g6
I1
sg7
S'Source'
p4328
sg9
S'Create Tour on Tour Schedule'
p4329
sg11
(dp4330
S'Publish Tour Schedule'
p4331
g0
(g1
g2
Ntp4332
Rp4333
(dp4334
g6
I1
sg7
S'Target'
p4335
sg9
S'Publish Tour Schedule'
p4336
sg11
(dp4337
S'create'
p4338
g0
(g1
g2
Ntp4339
Rp4340
(dp4341
g6
I1
sg7
S'Word'
p4342
sg9
S'create'
p4343
sg11
(dp4344
S'NNP'
p4345
g0
(g1
g2
Ntp4346
Rp4347
(dp4348
g6
I1
sg7
S'POS'
p4349
sg9
S'NNP'
p4350
sg11
(dp4351
sbssbsS'tour'
p4352
g0
(g1
g2
Ntp4353
Rp4354
(dp4355
g6
I2
sg7
S'Word'
p4356
sg9
S'tour'
p4357
sg11
(dp4358
S'NNP'
p4359
g0
(g1
g2
Ntp4360
Rp4361
(dp4362
g6
I2
sg7
S'POS'
p4363
sg9
S'NNP'
p4364
sg11
(dp4365
sbssbsS'schedule'
p4366
g0
(g1
g2
Ntp4367
Rp4368
(dp4369
g6
I1
sg7
S'Word'
p4370
sg9
S'schedule'
p4371
sg11
(dp4372
S'NNP'
p4373
g0
(g1
g2
Ntp4374
Rp4375
(dp4376
g6
I1
sg7
S'POS'
p4377
sg9
S'NNP'
p4378
sg11
(dp4379
sbssbssbsS'create'
p4380
g0
(g1
g2
Ntp4381
Rp4382
(dp4383
g6
I1
sg7
S'Word'
p4384
sg9
S'create'
p4385
sg11
(dp4386
S'NNP'
p4387
g0
(g1
g2
Ntp4388
Rp4389
(dp4390
g6
I1
sg7
S'POS'
p4391
sg9
S'NNP'
p4392
sg11
(dp4393
sbssbsS'tour'
p4394
g0
(g1
g2
Ntp4395
Rp4396
(dp4397
g6
I2
sg7
S'Word'
p4398
sg9
S'tour'
p4399
sg11
(dp4400
S'NNP'
p4401
g0
(g1
g2
Ntp4402
Rp4403
(dp4404
g6
I2
sg7
S'POS'
p4405
sg9
S'NNP'
p4406
sg11
(dp4407
sbssbsS'schedule'
p4408
g0
(g1
g2
Ntp4409
Rp4410
(dp4411
g6
I1
sg7
S'Word'
p4412
sg9
S'schedule'
p4413
sg11
(dp4414
S'NNP'
p4415
g0
(g1
g2
Ntp4416
Rp4417
(dp4418
g6
I1
sg7
S'POS'
p4419
sg9
S'NNP'
p4420
sg11
(dp4421
sbssbssbsS'Member Contacts DVC'
p4422
g0
(g1
g2
Ntp4423
Rp4424
(dp4425
g6
I1
sg7
S'Source'
p4426
sg9
S'Member Contacts DVC'
p4427
sg11
(dp4428
S'member'
p4429
g0
(g1
g2
Ntp4430
Rp4431
(dp4432
g6
I1
sg7
S'Word'
p4433
sg9
S'member'
p4434
sg11
(dp4435
S'NNP'
p4436
g0
(g1
g2
Ntp4437
Rp4438
(dp4439
g6
I1
sg7
S'POS'
p4440
sg9
S'NNP'
p4441
sg11
(dp4442
sbssbsS'contact'
p4443
g0
(g1
g2
Ntp4444
Rp4445
(dp4446
g6
I1
sg7
S'Word'
p4447
sg9
S'contact'
p4448
sg11
(dp4449
S'NNPS'
p4450
g0
(g1
g2
Ntp4451
Rp4452
(dp4453
g6
I1
sg7
S'POS'
p4454
sg9
S'NNPS'
p4455
sg11
(dp4456
sbssbsg2176
g2173
sS'dvc'
p4457
g0
(g1
g2
Ntp4458
Rp4459
(dp4460
g6
I1
sg7
S'Word'
p4461
sg9
S'dvc'
p4462
sg11
(dp4463
S'NNP'
p4464
g0
(g1
g2
Ntp4465
Rp4466
(dp4467
g6
I1
sg7
S'POS'
p4468
sg9
S'NNP'
p4469
sg11
(dp4470
sbssbssbsS'Contract Closing'
p4471
g239
sS'Post Escrow Payment'
p4472
g0
(g1
g2
Ntp4473
Rp4474
(dp4475
g6
I1
sg7
S'Source'
p4476
sg9
S'Post Escrow Payment'
p4477
sg11
(dp4478
S'post'
p4479
g0
(g1
g2
Ntp4480
Rp4481
(dp4482
g6
I1
sg7
S'Word'
p4483
sg9
S'post'
p4484
sg11
(dp4485
S'NNP'
p4486
g0
(g1
g2
Ntp4487
Rp4488
(dp4489
g6
I1
sg7
S'POS'
p4490
sg9
S'NNP'
p4491
sg11
(dp4492
sbssbsS'Reconcile Journals'
p4493
g0
(g1
g2
Ntp4494
Rp4495
(dp4496
g6
I1
sg7
S'Target'
p4497
sg9
S'Reconcile Journals'
p4498
sg11
(dp4499
S'post'
p4500
g0
(g1
g2
Ntp4501
Rp4502
(dp4503
g6
I1
sg7
S'Word'
p4504
sg9
S'post'
p4505
sg11
(dp4506
S'NNP'
p4507
g0
(g1
g2
Ntp4508
Rp4509
(dp4510
g6
I1
sg7
S'POS'
p4511
sg9
S'NNP'
p4512
sg11
(dp4513
sbssbsS'payment'
p4514
g0
(g1
g2
Ntp4515
Rp4516
(dp4517
g6
I1
sg7
S'Word'
p4518
sg9
S'payment'
p4519
sg11
(dp4520
S'NNP'
p4521
g0
(g1
g2
Ntp4522
Rp4523
(dp4524
g6
I1
sg7
S'POS'
p4525
sg9
S'NNP'
p4526
sg11
(dp4527
sbssbsS'escrow'
p4528
g0
(g1
g2
Ntp4529
Rp4530
(dp4531
g6
I1
sg7
S'Word'
p4532
sg9
S'escrow'
p4533
sg11
(dp4534
S'NNP'
p4535
g0
(g1
g2
Ntp4536
Rp4537
(dp4538
g6
I1
sg7
S'POS'
p4539
sg9
S'NNP'
p4540
sg11
(dp4541
sbssbssbsS'payment'
p4542
g0
(g1
g2
Ntp4543
Rp4544
(dp4545
g6
I1
sg7
S'Word'
p4546
sg9
S'payment'
p4547
sg11
(dp4548
S'NNP'
p4549
g0
(g1
g2
Ntp4550
Rp4551
(dp4552
g6
I1
sg7
S'POS'
p4553
sg9
S'NNP'
p4554
sg11
(dp4555
sbssbsS'escrow'
p4556
g0
(g1
g2
Ntp4557
Rp4558
(dp4559
g6
I1
sg7
S'Word'
p4560
sg9
S'escrow'
p4561
sg11
(dp4562
S'NNP'
p4563
g0
(g1
g2
Ntp4564
Rp4565
(dp4566
g6
I1
sg7
S'POS'
p4567
sg9
S'NNP'
p4568
sg11
(dp4569
sbssbssbsS'Settle General Ledger'
p4570
g1781
sS'Update Tour Schedule'
p4571
g0
(g1
g2
Ntp4572
Rp4573
(dp4574
g6
I1
sg7
S'Source'
p4575
sg9
S'Update Tour Schedule'
p4576
sg11
(dp4577
S'Publish Tour Schedule'
p4578
g0
(g1
g2
Ntp4579
Rp4580
(dp4581
g6
I1
sg7
S'Target'
p4582
sg9
S'Publish Tour Schedule'
p4583
sg11
(dp4584
S'tour'
p4585
g0
(g1
g2
Ntp4586
Rp4587
(dp4588
g6
I1
sg7
S'Word'
p4589
sg9
S'tour'
p4590
sg11
(dp4591
S'NNP'
p4592
g0
(g1
g2
Ntp4593
Rp4594
(dp4595
g6
I1
sg7
S'POS'
p4596
sg9
S'NNP'
p4597
sg11
(dp4598
sbssbsS'update'
p4599
g0
(g1
g2
Ntp4600
Rp4601
(dp4602
g6
I1
sg7
S'Word'
p4603
sg9
S'update'
p4604
sg11
(dp4605
S'NNP'
p4606
g0
(g1
g2
Ntp4607
Rp4608
(dp4609
g6
I1
sg7
S'POS'
p4610
sg9
S'NNP'
p4611
sg11
(dp4612
sbssbsS'schedule'
p4613
g0
(g1
g2
Ntp4614
Rp4615
(dp4616
g6
I1
sg7
S'Word'
p4617
sg9
S'schedule'
p4618
sg11
(dp4619
S'NNP'
p4620
g0
(g1
g2
Ntp4621
Rp4622
(dp4623
g6
I1
sg7
S'POS'
p4624
sg9
S'NNP'
p4625
sg11
(dp4626
sbssbssbsS'tour'
p4627
g0
(g1
g2
Ntp4628
Rp4629
(dp4630
g6
I1
sg7
S'Word'
p4631
sg9
S'tour'
p4632
sg11
(dp4633
S'NNP'
p4634
g0
(g1
g2
Ntp4635
Rp4636
(dp4637
g6
I1
sg7
S'POS'
p4638
sg9
S'NNP'
p4639
sg11
(dp4640
sbssbsS'update'
p4641
g0
(g1
g2
Ntp4642
Rp4643
(dp4644
g6
I1
sg7
S'Word'
p4645
sg9
S'update'
p4646
sg11
(dp4647
S'NNP'
p4648
g0
(g1
g2
Ntp4649
Rp4650
(dp4651
g6
I1
sg7
S'POS'
p4652
sg9
S'NNP'
p4653
sg11
(dp4654
sbssbsS'schedule'
p4655
g0
(g1
g2
Ntp4656
Rp4657
(dp4658
g6
I1
sg7
S'Word'
p4659
sg9
S'schedule'
p4660
sg11
(dp4661
S'NNP'
p4662
g0
(g1
g2
Ntp4663
Rp4664
(dp4665
g6
I1
sg7
S'POS'
p4666
sg9
S'NNP'
p4667
sg11
(dp4668
sbssbssbsS'Bankruptcy Court Judgement'
p4669
g3305
sS'Collect Contract Details'
p4670
g3465
sS'Post Licensure for Sales Agent'
p4671
g0
(g1
g2
Ntp4672
Rp4673
(dp4674
g6
I1
sg7
S'Source'
p4675
sg9
S'Post Licensure for Sales Agent'
p4676
sg11
(dp4677
S'post'
p4678
g0
(g1
g2
Ntp4679
Rp4680
(dp4681
g6
I1
sg7
S'Word'
p4682
sg9
S'post'
p4683
sg11
(dp4684
S'NNP'
p4685
g0
(g1
g2
Ntp4686
Rp4687
(dp4688
g6
I1
sg7
S'POS'
p4689
sg9
S'NNP'
p4690
sg11
(dp4691
sbssbsS'Reconcile Journals'
p4692
g0
(g1
g2
Ntp4693
Rp4694
(dp4695
g6
I1
sg7
S'Target'
p4696
sg9
S'Reconcile Journals'
p4697
sg11
(dp4698
S'post'
p4699
g0
(g1
g2
Ntp4700
Rp4701
(dp4702
g6
I1
sg7
S'Word'
p4703
sg9
S'post'
p4704
sg11
(dp4705
S'NNP'
p4706
g0
(g1
g2
Ntp4707
Rp4708
(dp4709
g6
I1
sg7
S'POS'
p4710
sg9
S'NNP'
p4711
sg11
(dp4712
sbssbsS'sale'
p4713
g0
(g1
g2
Ntp4714
Rp4715
(dp4716
g6
I1
sg7
S'Word'
p4717
sg9
S'sale'
p4718
sg11
(dp4719
S'NNP'
p4720
g0
(g1
g2
Ntp4721
Rp4722
(dp4723
g6
I1
sg7
S'POS'
p4724
sg9
S'NNP'
p4725
sg11
(dp4726
sbssbsS'agent'
p4727
g0
(g1
g2
Ntp4728
Rp4729
(dp4730
g6
I1
sg7
S'Word'
p4731
sg9
S'agent'
p4732
sg11
(dp4733
S'NNP'
p4734
g0
(g1
g2
Ntp4735
Rp4736
(dp4737
g6
I1
sg7
S'POS'
p4738
sg9
S'NNP'
p4739
sg11
(dp4740
sbssbsS'licensure'
p4741
g0
(g1
g2
Ntp4742
Rp4743
(dp4744
g6
I1
sg7
S'Word'
p4745
sg9
S'licensure'
p4746
sg11
(dp4747
S'NNP'
p4748
g0
(g1
g2
Ntp4749
Rp4750
(dp4751
g6
I1
sg7
S'POS'
p4752
sg9
S'NNP'
p4753
sg11
(dp4754
sbssbssbsS'sale'
p4755
g0
(g1
g2
Ntp4756
Rp4757
(dp4758
g6
I1
sg7
S'Word'
p4759
sg9
S'sale'
p4760
sg11
(dp4761
S'NNP'
p4762
g0
(g1
g2
Ntp4763
Rp4764
(dp4765
g6
I1
sg7
S'POS'
p4766
sg9
S'NNP'
p4767
sg11
(dp4768
sbssbsS'agent'
p4769
g0
(g1
g2
Ntp4770
Rp4771
(dp4772
g6
I1
sg7
S'Word'
p4773
sg9
S'agent'
p4774
sg11
(dp4775
S'NNP'
p4776
g0
(g1
g2
Ntp4777
Rp4778
(dp4779
g6
I1
sg7
S'POS'
p4780
sg9
S'NNP'
p4781
sg11
(dp4782
sbssbsS'licensure'
p4783
g0
(g1
g2
Ntp4784
Rp4785
(dp4786
g6
I1
sg7
S'Word'
p4787
sg9
S'licensure'
p4788
sg11
(dp4789
S'NNP'
p4790
g0
(g1
g2
Ntp4791
Rp4792
(dp4793
g6
I1
sg7
S'POS'
p4794
sg9
S'NNP'
p4795
sg11
(dp4796
sbssbssbsS'Start Proposal Creation'
p4797
g0
(g1
g2
Ntp4798
Rp4799
(dp4800
g6
I1
sg7
S'Source'
p4801
sg9
S'Start Proposal Creation'
p4802
sg11
(dp4803
S'creation'
p4804
g0
(g1
g2
Ntp4805
Rp4806
(dp4807
g6
I1
sg7
S'Word'
p4808
sg9
S'creation'
p4809
sg11
(dp4810
S'NNP'
p4811
g0
(g1
g2
Ntp4812
Rp4813
(dp4814
g6
I1
sg7
S'POS'
p4815
sg9
S'NNP'
p4816
sg11
(dp4817
sbssbsS'Update Proposal'
p4818
g0
(g1
g2
Ntp4819
Rp4820
(dp4821
g6
I1
sg7
S'Target'
p4822
sg9
S'Update Proposal'
p4823
sg11
(dp4824
S'start'
p4825
g0
(g1
g2
Ntp4826
Rp4827
(dp4828
g6
I1
sg7
S'Word'
p4829
sg9
S'start'
p4830
sg11
(dp4831
S'NNP'
p4832
g0
(g1
g2
Ntp4833
Rp4834
(dp4835
g6
I1
sg7
S'POS'
p4836
sg9
S'NNP'
p4837
sg11
(dp4838
sbssbsS'proposal'
p4839
g0
(g1
g2
Ntp4840
Rp4841
(dp4842
g6
I1
sg7
S'Word'
p4843
sg9
S'proposal'
p4844
sg11
(dp4845
S'NNP'
p4846
g0
(g1
g2
Ntp4847
Rp4848
(dp4849
g6
I1
sg7
S'POS'
p4850
sg9
S'NNP'
p4851
sg11
(dp4852
sbssbsS'creation'
p4853
g0
(g1
g2
Ntp4854
Rp4855
(dp4856
g6
I1
sg7
S'Word'
p4857
sg9
S'creation'
p4858
sg11
(dp4859
S'NNP'
p4860
g0
(g1
g2
Ntp4861
Rp4862
(dp4863
g6
I1
sg7
S'POS'
p4864
sg9
S'NNP'
p4865
sg11
(dp4866
sbssbssbsS'start'
p4867
g0
(g1
g2
Ntp4868
Rp4869
(dp4870
g6
I1
sg7
S'Word'
p4871
sg9
S'start'
p4872
sg11
(dp4873
S'NNP'
p4874
g0
(g1
g2
Ntp4875
Rp4876
(dp4877
g6
I1
sg7
S'POS'
p4878
sg9
S'NNP'
p4879
sg11
(dp4880
sbssbsS'Review Proposal with Prospect'
p4881
g0
(g1
g2
Ntp4882
Rp4883
(dp4884
g6
I1
sg7
S'Target'
p4885
sg9
S'Review Proposal with Prospect'
p4886
sg11
(dp4887
S'start'
p4888
g0
(g1
g2
Ntp4889
Rp4890
(dp4891
g6
I1
sg7
S'Word'
p4892
sg9
S'start'
p4893
sg11
(dp4894
S'NNP'
p4895
g0
(g1
g2
Ntp4896
Rp4897
(dp4898
g6
I1
sg7
S'POS'
p4899
sg9
S'NNP'
p4900
sg11
(dp4901
sbssbsS'proposal'
p4902
g0
(g1
g2
Ntp4903
Rp4904
(dp4905
g6
I1
sg7
S'Word'
p4906
sg9
S'proposal'
p4907
sg11
(dp4908
S'NNP'
p4909
g0
(g1
g2
Ntp4910
Rp4911
(dp4912
g6
I1
sg7
S'POS'
p4913
sg9
S'NNP'
p4914
sg11
(dp4915
sbssbsS'creation'
p4916
g0
(g1
g2
Ntp4917
Rp4918
(dp4919
g6
I1
sg7
S'Word'
p4920
sg9
S'creation'
p4921
sg11
(dp4922
S'NNP'
p4923
g0
(g1
g2
Ntp4924
Rp4925
(dp4926
g6
I1
sg7
S'POS'
p4927
sg9
S'NNP'
p4928
sg11
(dp4929
sbssbssbsS'proposal'
p4930
g0
(g1
g2
Ntp4931
Rp4932
(dp4933
g6
I1
sg7
S'Word'
p4934
sg9
S'proposal'
p4935
sg11
(dp4936
S'NNP'
p4937
g0
(g1
g2
Ntp4938
Rp4939
(dp4940
g6
I1
sg7
S'POS'
p4941
sg9
S'NNP'
p4942
sg11
(dp4943
sbssbsS'Withdrawl Proposal'
p4944
g0
(g1
g2
Ntp4945
Rp4946
(dp4947
g6
I1
sg7
S'Target'
p4948
sg9
S'Withdrawl Proposal'
p4949
sg11
(dp4950
S'start'
p4951
g0
(g1
g2
Ntp4952
Rp4953
(dp4954
g6
I1
sg7
S'Word'
p4955
sg9
S'start'
p4956
sg11
(dp4957
S'NNP'
p4958
g0
(g1
g2
Ntp4959
Rp4960
(dp4961
g6
I1
sg7
S'POS'
p4962
sg9
S'NNP'
p4963
sg11
(dp4964
sbssbsS'proposal'
p4965
g0
(g1
g2
Ntp4966
Rp4967
(dp4968
g6
I1
sg7
S'Word'
p4969
sg9
S'proposal'
p4970
sg11
(dp4971
S'NNP'
p4972
g0
(g1
g2
Ntp4973
Rp4974
(dp4975
g6
I1
sg7
S'POS'
p4976
sg9
S'NNP'
p4977
sg11
(dp4978
sbssbsS'creation'
p4979
g0
(g1
g2
Ntp4980
Rp4981
(dp4982
g6
I1
sg7
S'Word'
p4983
sg9
S'creation'
p4984
sg11
(dp4985
S'NNP'
p4986
g0
(g1
g2
Ntp4987
Rp4988
(dp4989
g6
I1
sg7
S'POS'
p4990
sg9
S'NNP'
p4991
sg11
(dp4992
sbssbssbssbsS'Publish Declared Inventory'
p4993
g0
(g1
g2
Ntp4994
Rp4995
(dp4996
g6
I1
sg7
S'Source'
p4997
sg9
S'Publish Declared Inventory'
p4998
sg11
(dp4999
S'declared'
p5000
g0
(g1
g2
Ntp5001
Rp5002
(dp5003
g6
I1
sg7
S'Word'
p5004
sg9
S'declared'
p5005
sg11
(dp5006
S'NNP'
p5007
g0
(g1
g2
Ntp5008
Rp5009
(dp5010
g6
I1
sg7
S'POS'
p5011
sg9
S'NNP'
p5012
sg11
(dp5013
sbssbsS'Reconcile Journals'
p5014
g0
(g1
g2
Ntp5015
Rp5016
(dp5017
g6
I1
sg7
S'Target'
p5018
sg9
S'Reconcile Journals'
p5019
sg11
(dp5020
S'declared'
p5021
g0
(g1
g2
Ntp5022
Rp5023
(dp5024
g6
I1
sg7
S'Word'
p5025
sg9
S'declared'
p5026
sg11
(dp5027
S'NNP'
p5028
g0
(g1
g2
Ntp5029
Rp5030
(dp5031
g6
I1
sg7
S'POS'
p5032
sg9
S'NNP'
p5033
sg11
(dp5034
sbssbsS'inventory'
p5035
g0
(g1
g2
Ntp5036
Rp5037
(dp5038
g6
I1
sg7
S'Word'
p5039
sg9
S'inventory'
p5040
sg11
(dp5041
S'NNP'
p5042
g0
(g1
g2
Ntp5043
Rp5044
(dp5045
g6
I1
sg7
S'POS'
p5046
sg9
S'NNP'
p5047
sg11
(dp5048
sbssbssbsS'inventory'
p5049
g0
(g1
g2
Ntp5050
Rp5051
(dp5052
g6
I1
sg7
S'Word'
p5053
sg9
S'inventory'
p5054
sg11
(dp5055
S'NNP'
p5056
g0
(g1
g2
Ntp5057
Rp5058
(dp5059
g6
I1
sg7
S'POS'
p5060
sg9
S'NNP'
p5061
sg11
(dp5062
sbssbssbsS'Contact Members'
p5063
g3676
sS'Contract Preperation'
p5064
g4117
sS'Recieve Signed Contract'
p5065
g0
(g1
g2
Ntp5066
Rp5067
(dp5068
g6
I1
sg7
S'Source'
p5069
sg9
S'Recieve Signed Contract'
p5070
sg11
(dp5071
S'recieve'
p5072
g0
(g1
g2
Ntp5073
Rp5074
(dp5075
g6
I1
sg7
S'Word'
p5076
sg9
S'recieve'
p5077
sg11
(dp5078
S'NNP'
p5079
g0
(g1
g2
Ntp5080
Rp5081
(dp5082
g6
I1
sg7
S'POS'
p5083
sg9
S'NNP'
p5084
sg11
(dp5085
sbssbsg3037
g3034
sS'Decrement Inventory'
p5086
g0
(g1
g2
Ntp5087
Rp5088
(dp5089
g6
I1
sg7
S'Target'
p5090
sg9
S'Decrement Inventory'
p5091
sg11
(dp5092
S'recieve'
p5093
g0
(g1
g2
Ntp5094
Rp5095
(dp5096
g6
I1
sg7
S'Word'
p5097
sg9
S'recieve'
p5098
sg11
(dp5099
S'NNP'
p5100
g0
(g1
g2
Ntp5101
Rp5102
(dp5103
g6
I1
sg7
S'POS'
p5104
sg9
S'NNP'
p5105
sg11
(dp5106
sbssbsS'contract'
p5107
g0
(g1
g2
Ntp5108
Rp5109
(dp5110
g6
I1
sg7
S'Word'
p5111
sg9
S'contract'
p5112
sg11
(dp5113
S'NNP'
p5114
g0
(g1
g2
Ntp5115
Rp5116
(dp5117
g6
I1
sg7
S'POS'
p5118
sg9
S'NNP'
p5119
sg11
(dp5120
sbssbsS'signed'
p5121
g0
(g1
g2
Ntp5122
Rp5123
(dp5124
g6
I1
sg7
S'Word'
p5125
sg9
S'signed'
p5126
sg11
(dp5127
S'NNP'
p5128
g0
(g1
g2
Ntp5129
Rp5130
(dp5131
g6
I1
sg7
S'POS'
p5132
sg9
S'NNP'
p5133
sg11
(dp5134
sbssbssbsS'contract'
p5135
g0
(g1
g2
Ntp5136
Rp5137
(dp5138
g6
I1
sg7
S'Word'
p5139
sg9
S'contract'
p5140
sg11
(dp5141
S'NNP'
p5142
g0
(g1
g2
Ntp5143
Rp5144
(dp5145
g6
I1
sg7
S'POS'
p5146
sg9
S'NNP'
p5147
sg11
(dp5148
sbssbsS'signed'
p5149
g0
(g1
g2
Ntp5150
Rp5151
(dp5152
g6
I1
sg7
S'Word'
p5153
sg9
S'signed'
p5154
sg11
(dp5155
S'NNP'
p5156
g0
(g1
g2
Ntp5157
Rp5158
(dp5159
g6
I1
sg7
S'POS'
p5160
sg9
S'NNP'
p5161
sg11
(dp5162
sbssbssbsS'Determine if DVC execute Right-of-First Refusal'
p5163
g0
(g1
g2
Ntp5164
Rp5165
(dp5166
g6
I1
sg7
S'Source'
p5167
sg9
S'Determine if DVC execute Right-of-First Refusal'
p5168
sg11
(dp5169
S'execute'
p5170
g0
(g1
g2
Ntp5171
Rp5172
(dp5173
g6
I1
sg7
S'Word'
p5174
sg9
S'execute'
p5175
sg11
(dp5176
S'NN'
p5177
g0
(g1
g2
Ntp5178
Rp5179
(dp5180
g6
I1
sg7
S'POS'
p5181
sg9
S'NN'
p5182
sg11
(dp5183
sbssbsS'refusal'
p5184
g0
(g1
g2
Ntp5185
Rp5186
(dp5187
g6
I1
sg7
S'Word'
p5188
sg9
S'refusal'
p5189
sg11
(dp5190
S'NNP'
p5191
g0
(g1
g2
Ntp5192
Rp5193
(dp5194
g6
I1
sg7
S'POS'
p5195
sg9
S'NNP'
p5196
sg11
(dp5197
sbssbsS'DVC Takes Back Title'
p5198
g0
(g1
g2
Ntp5199
Rp5200
(dp5201
g6
I1
sg7
S'Target'
p5202
sg9
S'DVC Takes Back Title'
p5203
sg11
(dp5204
S'execute'
p5205
g0
(g1
g2
Ntp5206
Rp5207
(dp5208
g6
I1
sg7
S'Word'
p5209
sg9
S'execute'
p5210
sg11
(dp5211
S'NN'
p5212
g0
(g1
g2
Ntp5213
Rp5214
(dp5215
g6
I1
sg7
S'POS'
p5216
sg9
S'NN'
p5217
sg11
(dp5218
sbssbsS'refusal'
p5219
g0
(g1
g2
Ntp5220
Rp5221
(dp5222
g6
I1
sg7
S'Word'
p5223
sg9
S'refusal'
p5224
sg11
(dp5225
S'NNP'
p5226
g0
(g1
g2
Ntp5227
Rp5228
(dp5229
g6
I1
sg7
S'POS'
p5230
sg9
S'NNP'
p5231
sg11
(dp5232
sbssbsS'dvc'
p5233
g0
(g1
g2
Ntp5234
Rp5235
(dp5236
g6
I1
sg7
S'Word'
p5237
sg9
S'dvc'
p5238
sg11
(dp5239
S'NNP'
p5240
g0
(g1
g2
Ntp5241
Rp5242
(dp5243
g6
I1
sg7
S'POS'
p5244
sg9
S'NNP'
p5245
sg11
(dp5246
sbssbsS'determine'
p5247
g0
(g1
g2
Ntp5248
Rp5249
(dp5250
g6
I1
sg7
S'Word'
p5251
sg9
S'determine'
p5252
sg11
(dp5253
S'NNP'
p5254
g0
(g1
g2
Ntp5255
Rp5256
(dp5257
g6
I1
sg7
S'POS'
p5258
sg9
S'NNP'
p5259
sg11
(dp5260
sbssbsS'first'
p5261
g0
(g1
g2
Ntp5262
Rp5263
(dp5264
g6
I1
sg7
S'Word'
p5265
sg9
S'first'
p5266
sg11
(dp5267
S'NNP'
p5268
g0
(g1
g2
Ntp5269
Rp5270
(dp5271
g6
I1
sg7
S'POS'
p5272
sg9
S'NNP'
p5273
sg11
(dp5274
sbssbssbsS'dvc'
p5275
g0
(g1
g2
Ntp5276
Rp5277
(dp5278
g6
I1
sg7
S'Word'
p5279
sg9
S'dvc'
p5280
sg11
(dp5281
S'NNP'
p5282
g0
(g1
g2
Ntp5283
Rp5284
(dp5285
g6
I1
sg7
S'POS'
p5286
sg9
S'NNP'
p5287
sg11
(dp5288
sbssbsS'determine'
p5289
g0
(g1
g2
Ntp5290
Rp5291
(dp5292
g6
I1
sg7
S'Word'
p5293
sg9
S'determine'
p5294
sg11
(dp5295
S'NNP'
p5296
g0
(g1
g2
Ntp5297
Rp5298
(dp5299
g6
I1
sg7
S'POS'
p5300
sg9
S'NNP'
p5301
sg11
(dp5302
sbssbsS'first'
p5303
g0
(g1
g2
Ntp5304
Rp5305
(dp5306
g6
I1
sg7
S'Word'
p5307
sg9
S'first'
p5308
sg11
(dp5309
S'NNP'
p5310
g0
(g1
g2
Ntp5311
Rp5312
(dp5313
g6
I1
sg7
S'POS'
p5314
sg9
S'NNP'
p5315
sg11
(dp5316
sbssbssbsS'Notify Prospect on Waitlist of Availability'
p5317
g0
(g1
g2
Ntp5318
Rp5319
(dp5320
g6
I1
sg7
S'Source'
p5321
sg9
S'Notify Prospect on Waitlist of Availability'
p5322
sg11
(dp5323
S'prospect'
p5324
g0
(g1
g2
Ntp5325
Rp5326
(dp5327
g6
I1
sg7
S'Word'
p5328
sg9
S'prospect'
p5329
sg11
(dp5330
S'NNP'
p5331
g0
(g1
g2
Ntp5332
Rp5333
(dp5334
g6
I1
sg7
S'POS'
p5335
sg9
S'NNP'
p5336
sg11
(dp5337
sbssbsS'waitlist'
p5338
g0
(g1
g2
Ntp5339
Rp5340
(dp5341
g6
I1
sg7
S'Word'
p5342
sg9
S'waitlist'
p5343
sg11
(dp5344
S'NNP'
p5345
g0
(g1
g2
Ntp5346
Rp5347
(dp5348
g6
I1
sg7
S'POS'
p5349
sg9
S'NNP'
p5350
sg11
(dp5351
sbssbsS'Thaw Inventory'
p5352
g0
(g1
g2
Ntp5353
Rp5354
(dp5355
g6
I1
sg7
S'Target'
p5356
sg9
S'Thaw Inventory'
p5357
sg11
(dp5358
S'prospect'
p5359
g0
(g1
g2
Ntp5360
Rp5361
(dp5362
g6
I1
sg7
S'Word'
p5363
sg9
S'prospect'
p5364
sg11
(dp5365
S'NNP'
p5366
g0
(g1
g2
Ntp5367
Rp5368
(dp5369
g6
I1
sg7
S'POS'
p5370
sg9
S'NNP'
p5371
sg11
(dp5372
sbssbsS'availability'
p5373
g0
(g1
g2
Ntp5374
Rp5375
(dp5376
g6
I1
sg7
S'Word'
p5377
sg9
S'availability'
p5378
sg11
(dp5379
S'NNP'
p5380
g0
(g1
g2
Ntp5381
Rp5382
(dp5383
g6
I1
sg7
S'POS'
p5384
sg9
S'NNP'
p5385
sg11
(dp5386
sbssbsS'notify'
p5387
g0
(g1
g2
Ntp5388
Rp5389
(dp5390
g6
I1
sg7
S'Word'
p5391
sg9
S'notify'
p5392
sg11
(dp5393
S'NNP'
p5394
g0
(g1
g2
Ntp5395
Rp5396
(dp5397
g6
I1
sg7
S'POS'
p5398
sg9
S'NNP'
p5399
sg11
(dp5400
sbssbsS'waitlist'
p5401
g0
(g1
g2
Ntp5402
Rp5403
(dp5404
g6
I1
sg7
S'Word'
p5405
sg9
S'waitlist'
p5406
sg11
(dp5407
S'NNP'
p5408
g0
(g1
g2
Ntp5409
Rp5410
(dp5411
g6
I1
sg7
S'POS'
p5412
sg9
S'NNP'
p5413
sg11
(dp5414
sbssbssbsS'notify'
p5415
g0
(g1
g2
Ntp5416
Rp5417
(dp5418
g6
I1
sg7
S'Word'
p5419
sg9
S'notify'
p5420
sg11
(dp5421
S'NNP'
p5422
g0
(g1
g2
Ntp5423
Rp5424
(dp5425
g6
I1
sg7
S'POS'
p5426
sg9
S'NNP'
p5427
sg11
(dp5428
sbssbsg4802
g4799
sS'availability'
p5429
g0
(g1
g2
Ntp5430
Rp5431
(dp5432
g6
I1
sg7
S'Word'
p5433
sg9
S'availability'
p5434
sg11
(dp5435
S'NNP'
p5436
g0
(g1
g2
Ntp5437
Rp5438
(dp5439
g6
I1
sg7
S'POS'
p5440
sg9
S'NNP'
p5441
sg11
(dp5442
sbssbssbsS'Collect Escrow Deposit for Contract'
p5443
g0
(g1
g2
Ntp5444
Rp5445
(dp5446
g6
I1
sg7
S'Source'
p5447
sg9
S'Collect Escrow Deposit for Contract'
p5448
sg11
(dp5449
S'collect'
p5450
g0
(g1
g2
Ntp5451
Rp5452
(dp5453
g6
I1
sg7
S'Word'
p5454
sg9
S'collect'
p5455
sg11
(dp5456
S'NNP'
p5457
g0
(g1
g2
Ntp5458
Rp5459
(dp5460
g6
I1
sg7
S'POS'
p5461
sg9
S'NNP'
p5462
sg11
(dp5463
sbssbsg2569
g2566
sS'deposit'
p5464
g0
(g1
g2
Ntp5465
Rp5466
(dp5467
g6
I1
sg7
S'Word'
p5468
sg9
S'deposit'
p5469
sg11
(dp5470
S'NNP'
p5471
g0
(g1
g2
Ntp5472
Rp5473
(dp5474
g6
I1
sg7
S'POS'
p5475
sg9
S'NNP'
p5476
sg11
(dp5477
sbssbsS'contract'
p5478
g0
(g1
g2
Ntp5479
Rp5480
(dp5481
g6
I1
sg7
S'Word'
p5482
sg9
S'contract'
p5483
sg11
(dp5484
S'NNP'
p5485
g0
(g1
g2
Ntp5486
Rp5487
(dp5488
g6
I1
sg7
S'POS'
p5489
sg9
S'NNP'
p5490
sg11
(dp5491
sbssbsS'escrow'
p5492
g0
(g1
g2
Ntp5493
Rp5494
(dp5495
g6
I1
sg7
S'Word'
p5496
sg9
S'escrow'
p5497
sg11
(dp5498
S'NNP'
p5499
g0
(g1
g2
Ntp5500
Rp5501
(dp5502
g6
I1
sg7
S'POS'
p5503
sg9
S'NNP'
p5504
sg11
(dp5505
sbssbssbsS'Foreclose on Member'
p5506
g0
(g1
g2
Ntp5507
Rp5508
(dp5509
g6
I1
sg7
S'Source'
p5510
sg9
S'Foreclose on Member'
p5511
sg11
(dp5512
S'member'
p5513
g0
(g1
g2
Ntp5514
Rp5515
(dp5516
g6
I1
sg7
S'Word'
p5517
sg9
S'member'
p5518
sg11
(dp5519
S'NNP'
p5520
g0
(g1
g2
Ntp5521
Rp5522
(dp5523
g6
I1
sg7
S'POS'
p5524
sg9
S'NNP'
p5525
sg11
(dp5526
sbssbsS'Update Inventory'
p5527
g0
(g1
g2
Ntp5528
Rp5529
(dp5530
g6
I1
sg7
S'Target'
p5531
sg9
S'Update Inventory'
p5532
sg11
(dp5533
S'member'
p5534
g0
(g1
g2
Ntp5535
Rp5536
(dp5537
g6
I1
sg7
S'Word'
p5538
sg9
S'member'
p5539
sg11
(dp5540
S'NNP'
p5541
g0
(g1
g2
Ntp5542
Rp5543
(dp5544
g6
I1
sg7
S'POS'
p5545
sg9
S'NNP'
p5546
sg11
(dp5547
sbssbsS'foreclose'
p5548
g0
(g1
g2
Ntp5549
Rp5550
(dp5551
g6
I1
sg7
S'Word'
p5552
sg9
S'foreclose'
p5553
sg11
(dp5554
S'NNP'
p5555
g0
(g1
g2
Ntp5556
Rp5557
(dp5558
g6
I1
sg7
S'POS'
p5559
sg9
S'NNP'
p5560
sg11
(dp5561
sbssbssbsS'foreclose'
p5562
g0
(g1
g2
Ntp5563
Rp5564
(dp5565
g6
I1
sg7
S'Word'
p5566
sg9
S'foreclose'
p5567
sg11
(dp5568
S'NNP'
p5569
g0
(g1
g2
Ntp5570
Rp5571
(dp5572
g6
I1
sg7
S'POS'
p5573
sg9
S'NNP'
p5574
sg11
(dp5575
sbssbssbsS'Determine Inventory Available at Resort'
p5576
g0
(g1
g2
Ntp5577
Rp5578
(dp5579
g6
I1
sg7
S'Source'
p5580
sg9
S'Determine Inventory Available at Resort'
p5581
sg11
(dp5582
S'available'
p5583
g0
(g1
g2
Ntp5584
Rp5585
(dp5586
g6
I1
sg7
S'Word'
p5587
sg9
S'available'
p5588
sg11
(dp5589
S'NNP'
p5590
g0
(g1
g2
Ntp5591
Rp5592
(dp5593
g6
I1
sg7
S'POS'
p5594
sg9
S'NNP'
p5595
sg11
(dp5596
sbssbsS'resort'
p5597
g0
(g1
g2
Ntp5598
Rp5599
(dp5600
g6
I1
sg7
S'Word'
p5601
sg9
S'resort'
p5602
sg11
(dp5603
S'NNP'
p5604
g0
(g1
g2
Ntp5605
Rp5606
(dp5607
g6
I1
sg7
S'POS'
p5608
sg9
S'NNP'
p5609
sg11
(dp5610
sbssbsS'inventory'
p5611
g0
(g1
g2
Ntp5612
Rp5613
(dp5614
g6
I1
sg7
S'Word'
p5615
sg9
S'inventory'
p5616
sg11
(dp5617
S'NNP'
p5618
g0
(g1
g2
Ntp5619
Rp5620
(dp5621
g6
I1
sg7
S'POS'
p5622
sg9
S'NNP'
p5623
sg11
(dp5624
sbssbsS'determine'
p5625
g0
(g1
g2
Ntp5626
Rp5627
(dp5628
g6
I1
sg7
S'Word'
p5629
sg9
S'determine'
p5630
sg11
(dp5631
S'NNP'
p5632
g0
(g1
g2
Ntp5633
Rp5634
(dp5635
g6
I1
sg7
S'POS'
p5636
sg9
S'NNP'
p5637
sg11
(dp5638
sbssbsg4259
g4256
ssbsS'Collect Prospect Information'
p5639
g0
(g1
g2
Ntp5640
Rp5641
(dp5642
g6
I1
sg7
S'Source'
p5643
sg9
S'Collect Prospect Information'
p5644
sg11
(dp5645
S'prospect'
p5646
g0
(g1
g2
Ntp5647
Rp5648
(dp5649
g6
I1
sg7
S'Word'
p5650
sg9
S'prospect'
p5651
sg11
(dp5652
S'NNP'
p5653
g0
(g1
g2
Ntp5654
Rp5655
(dp5656
g6
I1
sg7
S'POS'
p5657
sg9
S'NNP'
p5658
sg11
(dp5659
sbssbsS'collect'
p5660
g0
(g1
g2
Ntp5661
Rp5662
(dp5663
g6
I1
sg7
S'Word'
p5664
sg9
S'collect'
p5665
sg11
(dp5666
S'NNP'
p5667
g0
(g1
g2
Ntp5668
Rp5669
(dp5670
g6
I1
sg7
S'POS'
p5671
sg9
S'NNP'
p5672
sg11
(dp5673
sbssbsS'Determine Prospect Eligibility'
p5674
g0
(g1
g2
Ntp5675
Rp5676
(dp5677
g6
I1
sg7
S'Target'
p5678
sg9
S'Determine Prospect Eligibility'
p5679
sg11
(dp5680
S'prospect'
p5681
g0
(g1
g2
Ntp5682
Rp5683
(dp5684
g6
I1
sg7
S'Word'
p5685
sg9
S'prospect'
p5686
sg11
(dp5687
S'NNP'
p5688
g0
(g1
g2
Ntp5689
Rp5690
(dp5691
g6
I1
sg7
S'POS'
p5692
sg9
S'NNP'
p5693
sg11
(dp5694
sbssbsS'collect'
p5695
g0
(g1
g2
Ntp5696
Rp5697
(dp5698
g6
I1
sg7
S'Word'
p5699
sg9
S'collect'
p5700
sg11
(dp5701
S'NNP'
p5702
g0
(g1
g2
Ntp5703
Rp5704
(dp5705
g6
I1
sg7
S'POS'
p5706
sg9
S'NNP'
p5707
sg11
(dp5708
sbssbsS'information'
p5709
g0
(g1
g2
Ntp5710
Rp5711
(dp5712
g6
I1
sg7
S'Word'
p5713
sg9
S'information'
p5714
sg11
(dp5715
S'NNP'
p5716
g0
(g1
g2
Ntp5717
Rp5718
(dp5719
g6
I1
sg7
S'POS'
p5720
sg9
S'NNP'
p5721
sg11
(dp5722
sbssbssbsS'information'
p5723
g0
(g1
g2
Ntp5724
Rp5725
(dp5726
g6
I1
sg7
S'Word'
p5727
sg9
S'information'
p5728
sg11
(dp5729
S'NNP'
p5730
g0
(g1
g2
Ntp5731
Rp5732
(dp5733
g6
I1
sg7
S'POS'
p5734
sg9
S'NNP'
p5735
sg11
(dp5736
sbssbssbsS'Post Member Dues'
p5737
g0
(g1
g2
Ntp5738
Rp5739
(dp5740
g6
I1
sg7
S'Source'
p5741
sg9
S'Post Member Dues'
p5742
sg11
(dp5743
S'member'
p5744
g0
(g1
g2
Ntp5745
Rp5746
(dp5747
g6
I1
sg7
S'Word'
p5748
sg9
S'member'
p5749
sg11
(dp5750
S'NNP'
p5751
g0
(g1
g2
Ntp5752
Rp5753
(dp5754
g6
I1
sg7
S'POS'
p5755
sg9
S'NNP'
p5756
sg11
(dp5757
sbssbsS'post'
p5758
g0
(g1
g2
Ntp5759
Rp5760
(dp5761
g6
I1
sg7
S'Word'
p5762
sg9
S'post'
p5763
sg11
(dp5764
S'NNP'
p5765
g0
(g1
g2
Ntp5766
Rp5767
(dp5768
g6
I1
sg7
S'POS'
p5769
sg9
S'NNP'
p5770
sg11
(dp5771
sbssbsg1749
g1746
sS'due'
p5772
g0
(g1
g2
Ntp5773
Rp5774
(dp5775
g6
I1
sg7
S'Word'
p5776
sg9
S'due'
p5777
sg11
(dp5778
S'NNP'
p5779
g0
(g1
g2
Ntp5780
Rp5781
(dp5782
g6
I1
sg7
S'POS'
p5783
sg9
S'NNP'
p5784
sg11
(dp5785
sbssbssbsS'Issue Title Insurance for Contract'
p5786
g0
(g1
g2
Ntp5787
Rp5788
(dp5789
g6
I1
sg7
S'Source'
p5790
sg9
S'Issue Title Insurance for Contract'
p5791
sg11
(dp5792
S'Perform Contract Closing'
p5793
g0
(g1
g2
Ntp5794
Rp5795
(dp5796
g6
I1
sg7
S'Target'
p5797
sg9
S'Perform Contract Closing'
p5798
sg11
(dp5799
S'issue'
p5800
g0
(g1
g2
Ntp5801
Rp5802
(dp5803
g6
I1
sg7
S'Word'
p5804
sg9
S'issue'
p5805
sg11
(dp5806
S'NN'
p5807
g0
(g1
g2
Ntp5808
Rp5809
(dp5810
g6
I1
sg7
S'POS'
p5811
sg9
S'NN'
p5812
sg11
(dp5813
sbssbsS'insurance'
p5814
g0
(g1
g2
Ntp5815
Rp5816
(dp5817
g6
I1
sg7
S'Word'
p5818
sg9
S'insurance'
p5819
sg11
(dp5820
S'NNP'
p5821
g0
(g1
g2
Ntp5822
Rp5823
(dp5824
g6
I1
sg7
S'POS'
p5825
sg9
S'NNP'
p5826
sg11
(dp5827
sbssbsS'contract'
p5828
g0
(g1
g2
Ntp5829
Rp5830
(dp5831
g6
I1
sg7
S'Word'
p5832
sg9
S'contract'
p5833
sg11
(dp5834
S'NNP'
p5835
g0
(g1
g2
Ntp5836
Rp5837
(dp5838
g6
I1
sg7
S'POS'
p5839
sg9
S'NNP'
p5840
sg11
(dp5841
sbssbsS'title'
p5842
g0
(g1
g2
Ntp5843
Rp5844
(dp5845
g6
I1
sg7
S'Word'
p5846
sg9
S'title'
p5847
sg11
(dp5848
S'NN'
p5849
g0
(g1
g2
Ntp5850
Rp5851
(dp5852
g6
I1
sg7
S'POS'
p5853
sg9
S'NN'
p5854
sg11
(dp5855
sbssbssbsS'issue'
p5856
g0
(g1
g2
Ntp5857
Rp5858
(dp5859
g6
I1
sg7
S'Word'
p5860
sg9
S'issue'
p5861
sg11
(dp5862
S'NN'
p5863
g0
(g1
g2
Ntp5864
Rp5865
(dp5866
g6
I1
sg7
S'POS'
p5867
sg9
S'NN'
p5868
sg11
(dp5869
sbssbsS'insurance'
p5870
g0
(g1
g2
Ntp5871
Rp5872
(dp5873
g6
I1
sg7
S'Word'
p5874
sg9
S'insurance'
p5875
sg11
(dp5876
S'NNP'
p5877
g0
(g1
g2
Ntp5878
Rp5879
(dp5880
g6
I1
sg7
S'POS'
p5881
sg9
S'NNP'
p5882
sg11
(dp5883
sbssbsS'contract'
p5884
g0
(g1
g2
Ntp5885
Rp5886
(dp5887
g6
I1
sg7
S'Word'
p5888
sg9
S'contract'
p5889
sg11
(dp5890
S'NNP'
p5891
g0
(g1
g2
Ntp5892
Rp5893
(dp5894
g6
I1
sg7
S'POS'
p5895
sg9
S'NNP'
p5896
sg11
(dp5897
sbssbsS'title'
p5898
g0
(g1
g2
Ntp5899
Rp5900
(dp5901
g6
I1
sg7
S'Word'
p5902
sg9
S'title'
p5903
sg11
(dp5904
S'NN'
p5905
g0
(g1
g2
Ntp5906
Rp5907
(dp5908
g6
I1
sg7
S'POS'
p5909
sg9
S'NN'
p5910
sg11
(dp5911
sbssbssbsS'Post Contract Deposit'
p5912
g0
(g1
g2
Ntp5913
Rp5914
(dp5915
g6
I1
sg7
S'Source'
p5916
sg9
S'Post Contract Deposit'
p5917
sg11
(dp5918
S'post'
p5919
g0
(g1
g2
Ntp5920
Rp5921
(dp5922
g6
I1
sg7
S'Word'
p5923
sg9
S'post'
p5924
sg11
(dp5925
S'NNP'
p5926
g0
(g1
g2
Ntp5927
Rp5928
(dp5929
g6
I1
sg7
S'POS'
p5930
sg9
S'NNP'
p5931
sg11
(dp5932
sbssbsS'Reconcile Journals'
p5933
g0
(g1
g2
Ntp5934
Rp5935
(dp5936
g6
I1
sg7
S'Target'
p5937
sg9
S'Reconcile Journals'
p5938
sg11
(dp5939
S'post'
p5940
g0
(g1
g2
Ntp5941
Rp5942
(dp5943
g6
I1
sg7
S'Word'
p5944
sg9
S'post'
p5945
sg11
(dp5946
S'NNP'
p5947
g0
(g1
g2
Ntp5948
Rp5949
(dp5950
g6
I1
sg7
S'POS'
p5951
sg9
S'NNP'
p5952
sg11
(dp5953
sbssbsS'deposit'
p5954
g0
(g1
g2
Ntp5955
Rp5956
(dp5957
g6
I1
sg7
S'Word'
p5958
sg9
S'deposit'
p5959
sg11
(dp5960
S'NNP'
p5961
g0
(g1
g2
Ntp5962
Rp5963
(dp5964
g6
I1
sg7
S'POS'
p5965
sg9
S'NNP'
p5966
sg11
(dp5967
sbssbsS'contract'
p5968
g0
(g1
g2
Ntp5969
Rp5970
(dp5971
g6
I1
sg7
S'Word'
p5972
sg9
S'contract'
p5973
sg11
(dp5974
S'NNP'
p5975
g0
(g1
g2
Ntp5976
Rp5977
(dp5978
g6
I1
sg7
S'POS'
p5979
sg9
S'NNP'
p5980
sg11
(dp5981
sbssbssbsS'deposit'
p5982
g0
(g1
g2
Ntp5983
Rp5984
(dp5985
g6
I1
sg7
S'Word'
p5986
sg9
S'deposit'
p5987
sg11
(dp5988
S'NNP'
p5989
g0
(g1
g2
Ntp5990
Rp5991
(dp5992
g6
I1
sg7
S'POS'
p5993
sg9
S'NNP'
p5994
sg11
(dp5995
sbssbsS'contract'
p5996
g0
(g1
g2
Ntp5997
Rp5998
(dp5999
g6
I1
sg7
S'Word'
p6000
sg9
S'contract'
p6001
sg11
(dp6002
S'NNP'
p6003
g0
(g1
g2
Ntp6004
Rp6005
(dp6006
g6
I1
sg7
S'POS'
p6007
sg9
S'NNP'
p6008
sg11
(dp6009
sbssbssbsS'Generate Members at Risk of Foreclosure'
p6010
g0
(g1
g2
Ntp6011
Rp6012
(dp6013
g6
I1
sg7
S'Source'
p6014
sg9
S'Generate Members at Risk of Foreclosure'
p6015
sg11
(dp6016
S'member'
p6017
g0
(g1
g2
Ntp6018
Rp6019
(dp6020
g6
I1
sg7
S'Word'
p6021
sg9
S'member'
p6022
sg11
(dp6023
S'NNP'
p6024
g0
(g1
g2
Ntp6025
Rp6026
(dp6027
g6
I1
sg7
S'POS'
p6028
sg9
S'NNP'
p6029
sg11
(dp6030
sbssbsg3674
g3676
sS'generate'
p6031
g0
(g1
g2
Ntp6032
Rp6033
(dp6034
g6
I1
sg7
S'Word'
p6035
sg9
S'generate'
p6036
sg11
(dp6037
S'NNP'
p6038
g0
(g1
g2
Ntp6039
Rp6040
(dp6041
g6
I1
sg7
S'POS'
p6042
sg9
S'NNP'
p6043
sg11
(dp6044
sbssbsS'foreclosure'
p6045
g0
(g1
g2
Ntp6046
Rp6047
(dp6048
g6
I1
sg7
S'Word'
p6049
sg9
S'foreclosure'
p6050
sg11
(dp6051
S'NNP'
p6052
g0
(g1
g2
Ntp6053
Rp6054
(dp6055
g6
I1
sg7
S'POS'
p6056
sg9
S'NNP'
p6057
sg11
(dp6058
sbssbsS'risk'
p6059
g0
(g1
g2
Ntp6060
Rp6061
(dp6062
g6
I1
sg7
S'Word'
p6063
sg9
S'risk'
p6064
sg11
(dp6065
S'NNP'
p6066
g0
(g1
g2
Ntp6067
Rp6068
(dp6069
g6
I1
sg7
S'POS'
p6070
sg9
S'NNP'
p6071
sg11
(dp6072
sbssbssbsS'Update Tour'
p6073
g0
(g1
g2
Ntp6074
Rp6075
(dp6076
g6
I1
sg7
S'Source'
p6077
sg9
S'Update Tour'
p6078
sg11
(dp6079
S'tour'
p6080
g0
(g1
g2
Ntp6081
Rp6082
(dp6083
g6
I1
sg7
S'Word'
p6084
sg9
S'tour'
p6085
sg11
(dp6086
S'NNP'
p6087
g0
(g1
g2
Ntp6088
Rp6089
(dp6090
g6
I1
sg7
S'POS'
p6091
sg9
S'NNP'
p6092
sg11
(dp6093
sbssbsS'update'
p6094
g0
(g1
g2
Ntp6095
Rp6096
(dp6097
g6
I1
sg7
S'Word'
p6098
sg9
S'update'
p6099
sg11
(dp6100
S'NNP'
p6101
g0
(g1
g2
Ntp6102
Rp6103
(dp6104
g6
I1
sg7
S'POS'
p6105
sg9
S'NNP'
p6106
sg11
(dp6107
sbssbsS'Conduct Tour'
p6108
g0
(g1
g2
Ntp6109
Rp6110
(dp6111
g6
I1
sg7
S'Target'
p6112
sg9
S'Conduct Tour'
p6113
sg11
(dp6114
S'tour'
p6115
g0
(g1
g2
Ntp6116
Rp6117
(dp6118
g6
I1
sg7
S'Word'
p6119
sg9
S'tour'
p6120
sg11
(dp6121
S'NNP'
p6122
g0
(g1
g2
Ntp6123
Rp6124
(dp6125
g6
I1
sg7
S'POS'
p6126
sg9
S'NNP'
p6127
sg11
(dp6128
sbssbsS'update'
p6129
g0
(g1
g2
Ntp6130
Rp6131
(dp6132
g6
I1
sg7
S'Word'
p6133
sg9
S'update'
p6134
sg11
(dp6135
S'NNP'
p6136
g0
(g1
g2
Ntp6137
Rp6138
(dp6139
g6
I1
sg7
S'POS'
p6140
sg9
S'NNP'
p6141
sg11
(dp6142
sbssbssbssbsS'Create Tour Schedule'
p6143
g0
(g1
g2
Ntp6144
Rp6145
(dp6146
g6
I1
sg7
S'Source'
p6147
sg9
S'Create Tour Schedule'
p6148
sg11
(dp6149
S'Create Tour on Tour Schedule'
p6150
g0
(g1
g2
Ntp6151
Rp6152
(dp6153
g6
I1
sg7
S'Target'
p6154
sg9
S'Create Tour on Tour Schedule'
p6155
sg11
(dp6156
S'create'
p6157
g0
(g1
g2
Ntp6158
Rp6159
(dp6160
g6
I1
sg7
S'Word'
p6161
sg9
S'create'
p6162
sg11
(dp6163
S'NNP'
p6164
g0
(g1
g2
Ntp6165
Rp6166
(dp6167
g6
I1
sg7
S'POS'
p6168
sg9
S'NNP'
p6169
sg11
(dp6170
sbssbsS'tour'
p6171
g0
(g1
g2
Ntp6172
Rp6173
(dp6174
g6
I1
sg7
S'Word'
p6175
sg9
S'tour'
p6176
sg11
(dp6177
S'NNP'
p6178
g0
(g1
g2
Ntp6179
Rp6180
(dp6181
g6
I1
sg7
S'POS'
p6182
sg9
S'NNP'
p6183
sg11
(dp6184
sbssbsS'schedule'
p6185
g0
(g1
g2
Ntp6186
Rp6187
(dp6188
g6
I1
sg7
S'Word'
p6189
sg9
S'schedule'
p6190
sg11
(dp6191
S'NNP'
p6192
g0
(g1
g2
Ntp6193
Rp6194
(dp6195
g6
I1
sg7
S'POS'
p6196
sg9
S'NNP'
p6197
sg11
(dp6198
sbssbssbsS'create'
p6199
g0
(g1
g2
Ntp6200
Rp6201
(dp6202
g6
I1
sg7
S'Word'
p6203
sg9
S'create'
p6204
sg11
(dp6205
S'NNP'
p6206
g0
(g1
g2
Ntp6207
Rp6208
(dp6209
g6
I1
sg7
S'POS'
p6210
sg9
S'NNP'
p6211
sg11
(dp6212
sbssbsg4576
g4573
sS'tour'
p6213
g0
(g1
g2
Ntp6214
Rp6215
(dp6216
g6
I1
sg7
S'Word'
p6217
sg9
S'tour'
p6218
sg11
(dp6219
S'NNP'
p6220
g0
(g1
g2
Ntp6221
Rp6222
(dp6223
g6
I1
sg7
S'POS'
p6224
sg9
S'NNP'
p6225
sg11
(dp6226
sbssbsS'schedule'
p6227
g0
(g1
g2
Ntp6228
Rp6229
(dp6230
g6
I1
sg7
S'Word'
p6231
sg9
S'schedule'
p6232
sg11
(dp6233
S'NNP'
p6234
g0
(g1
g2
Ntp6235
Rp6236
(dp6237
g6
I1
sg7
S'POS'
p6238
sg9
S'NNP'
p6239
sg11
(dp6240
sbssbssbsS'Present Foreclosre Documents to Court'
p6241
g0
(g1
g2
Ntp6242
Rp6243
(dp6244
g6
I1
sg7
S'Source'
p6245
sg9
S'Present Foreclosre Documents to Court'
p6246
sg11
(dp6247
S'court'
p6248
g0
(g1
g2
Ntp6249
Rp6250
(dp6251
g6
I1
sg7
S'Word'
p6252
sg9
S'court'
p6253
sg11
(dp6254
S'NNP'
p6255
g0
(g1
g2
Ntp6256
Rp6257
(dp6258
g6
I1
sg7
S'POS'
p6259
sg9
S'NNP'
p6260
sg11
(dp6261
sbssbsg5511
g5508
sS'document'
p6262
g0
(g1
g2
Ntp6263
Rp6264
(dp6265
g6
I1
sg7
S'Word'
p6266
sg9
S'document'
p6267
sg11
(dp6268
S'NNP'
p6269
g0
(g1
g2
Ntp6270
Rp6271
(dp6272
g6
I1
sg7
S'POS'
p6273
sg9
S'NNP'
p6274
sg11
(dp6275
sbssbsS'foreclosre'
p6276
g0
(g1
g2
Ntp6277
Rp6278
(dp6279
g6
I1
sg7
S'Word'
p6280
sg9
S'foreclosre'
p6281
sg11
(dp6282
S'NNP'
p6283
g0
(g1
g2
Ntp6284
Rp6285
(dp6286
g6
I1
sg7
S'POS'
p6287
sg9
S'NNP'
p6288
sg11
(dp6289
sbssbsS'present'
p6290
g0
(g1
g2
Ntp6291
Rp6292
(dp6293
g6
I1
sg7
S'Word'
p6294
sg9
S'present'
p6295
sg11
(dp6296
S'NNP'
p6297
g0
(g1
g2
Ntp6298
Rp6299
(dp6300
g6
I1
sg7
S'POS'
p6301
sg9
S'NNP'
p6302
sg11
(dp6303
sbssbssbsS'Contact Leads'
p6304
g628
sS'Rate Lead Potential'
p6305
g0
(g1
g2
Ntp6306
Rp6307
(dp6308
g6
I1
sg7
S'Source'
p6309
sg9
S'Rate Lead Potential'
p6310
sg11
(dp6311
S'rate'
p6312
g0
(g1
g2
Ntp6313
Rp6314
(dp6315
g6
I1
sg7
S'Word'
p6316
sg9
S'rate'
p6317
sg11
(dp6318
S'NNP'
p6319
g0
(g1
g2
Ntp6320
Rp6321
(dp6322
g6
I1
sg7
S'POS'
p6323
sg9
S'NNP'
p6324
sg11
(dp6325
sbssbsS'potential'
p6326
g0
(g1
g2
Ntp6327
Rp6328
(dp6329
g6
I1
sg7
S'Word'
p6330
sg9
S'potential'
p6331
sg11
(dp6332
S'NNP'
p6333
g0
(g1
g2
Ntp6334
Rp6335
(dp6336
g6
I1
sg7
S'POS'
p6337
sg9
S'NNP'
p6338
sg11
(dp6339
sbssbsS'Do Not Market to Lead'
p6340
g0
(g1
g2
Ntp6341
Rp6342
(dp6343
g6
I1
sg7
S'Target'
p6344
sg9
S'Do Not Market to Lead'
p6345
sg11
(dp6346
S'rate'
p6347
g0
(g1
g2
Ntp6348
Rp6349
(dp6350
g6
I1
sg7
S'Word'
p6351
sg9
S'rate'
p6352
sg11
(dp6353
S'NNP'
p6354
g0
(g1
g2
Ntp6355
Rp6356
(dp6357
g6
I1
sg7
S'POS'
p6358
sg9
S'NNP'
p6359
sg11
(dp6360
sbssbsS'potential'
p6361
g0
(g1
g2
Ntp6362
Rp6363
(dp6364
g6
I1
sg7
S'Word'
p6365
sg9
S'potential'
p6366
sg11
(dp6367
S'NNP'
p6368
g0
(g1
g2
Ntp6369
Rp6370
(dp6371
g6
I1
sg7
S'POS'
p6372
sg9
S'NNP'
p6373
sg11
(dp6374
sbssbsS'lead'
p6375
g0
(g1
g2
Ntp6376
Rp6377
(dp6378
g6
I1
sg7
S'Word'
p6379
sg9
S'lead'
p6380
sg11
(dp6381
S'NNP'
p6382
g0
(g1
g2
Ntp6383
Rp6384
(dp6385
g6
I1
sg7
S'POS'
p6386
sg9
S'NNP'
p6387
sg11
(dp6388
sbssbssbsS'lead'
p6389
g0
(g1
g2
Ntp6390
Rp6391
(dp6392
g6
I1
sg7
S'Word'
p6393
sg9
S'lead'
p6394
sg11
(dp6395
S'NNP'
p6396
g0
(g1
g2
Ntp6397
Rp6398
(dp6399
g6
I1
sg7
S'POS'
p6400
sg9
S'NNP'
p6401
sg11
(dp6402
sbssbssbsS'Generate Report'
p6403
g1516
ssb.