ccopy_reg
_reconstructor
p0
(cnl_lib.Concepts
Concepts
p1
c__builtin__
object
p2
Ntp3
Rp4
(dp5
S'count'
p6
I1
sS'typeName'
p7
S'Relations'
p8
sS'name'
p9
S'Application'
p10
sS'cd'
p11
(dp12
S'1.Party  WDW'
p13
g0
(g1
g2
Ntp14
Rp15
(dp16
g6
I1
sg7
S'Slide'
p17
sg9
S'1.Party  WDW'
p18
sg11
(dp19
S'EAI'
p20
g0
(g1
g2
Ntp21
Rp22
(dp23
g6
I1
sg7
S'Node'
p24
sg9
S'EAI'
p25
sg11
(dp26
S'h'
p27
g0
(g1
g2
Ntp28
Rp29
(dp30
g6
I3
sg7
S'0.944622703412'
p31
sg9
g27
sg11
(dp32
sbsS'Guest Svc v2'
p33
g0
(g1
g2
Ntp34
Rp35
(dp36
g6
I8
sg7
S'Target'
p37
sg9
S'Guest Svc v2'
p38
sg11
(dp39
g27
g0
(g1
g2
Ntp40
Rp41
(dp42
g6
I8
sg7
S'0.363587051619'
p43
sg9
g27
sg11
(dp44
sbsS'Book with Guest Id Ref SWID GUID GoMaster Guest Id'
p45
g0
(g1
g2
Ntp46
Rp47
(dp48
g6
I4
sg7
S'Edge'
p49
sg9
S'Book with Guest Id Ref SWID GUID GoMaster Guest Id'
p50
sg11
(dp51
sbsS'l'
p52
g0
(g1
g2
Ntp53
Rp54
(dp55
g6
I8
sg7
S'4.46388232721'
p56
sg9
g52
sg11
(dp57
sbsS't'
p58
g0
(g1
g2
Ntp59
Rp60
(dp61
g6
I8
sg7
S'2.17969160105'
p62
sg9
g58
sg11
(dp63
sbsS'w'
p64
g0
(g1
g2
Ntp65
Rp66
(dp67
g6
I8
sg7
S'1.09622156605'
p68
sg9
g64
sg11
(dp69
sbsS'Guest RQRS GuestDetails  RQRS GuestQuery  RQRS Odsslfguest   RQRS Organization RQRS'
p70
g0
(g1
g2
Ntp71
Rp72
(dp73
g6
I4
sg7
S'Edge'
p74
sg9
S'Guest RQRS GuestDetails  RQRS GuestQuery  RQRS Odsslfguest   RQRS Organization RQRS'
p75
sg11
(dp76
sbssbsg58
g0
(g1
g2
Ntp77
Rp78
(dp79
g6
I3
sg7
S'4.31149168854'
p80
sg9
g58
sg11
(dp81
sbsg64
g0
(g1
g2
Ntp82
Rp83
(dp84
g6
I3
sg7
S'0.594865485564'
p85
sg9
g64
sg11
(dp86
sbsg52
g0
(g1
g2
Ntp87
Rp88
(dp89
g6
I3
sg7
S'2.95868000875'
p90
sg9
g52
sg11
(dp91
sbssbsS'Guest Svc v1'
p92
g0
(g1
g2
Ntp93
Rp94
(dp95
g6
I1
sg7
S'Node'
p96
sg9
S'Guest Svc v1'
p97
sg11
(dp98
S'Dreams'
p99
g0
(g1
g2
Ntp100
Rp101
(dp102
g6
I1
sg7
S'Target'
p103
sg9
S'Dreams'
p104
sg11
(dp105
g27
g0
(g1
g2
Ntp106
Rp107
(dp108
g6
I1
sg7
S'0.363587051619'
p109
sg9
g27
sg11
(dp110
sbsS'TBD'
p111
g0
(g1
g2
Ntp112
Rp113
(dp114
g6
I1
sg7
S'Edge'
p115
sg9
S'TBD'
p116
sg11
(dp117
sbsg58
g0
(g1
g2
Ntp118
Rp119
(dp120
g6
I1
sg7
S'2.17323272091'
p121
sg9
g58
sg11
(dp122
sbsg64
g0
(g1
g2
Ntp123
Rp124
(dp125
g6
I1
sg7
S'1.02504155731'
p126
sg9
g64
sg11
(dp127
sbsg52
g0
(g1
g2
Ntp128
Rp129
(dp130
g6
I1
sg7
S'8.36384733158'
p131
sg9
g52
sg11
(dp132
sbssbsg27
g0
(g1
g2
Ntp133
Rp134
(dp135
g6
I2
sg7
S'0.363587051619'
p136
sg9
g27
sg11
(dp137
sbsg58
g0
(g1
g2
Ntp138
Rp139
(dp140
g6
I2
sg7
S'2.1951891951'
p141
sg9
g58
sg11
(dp142
sbsg64
g0
(g1
g2
Ntp143
Rp144
(dp145
g6
I2
sg7
S'1.09622156605'
p146
sg9
g64
sg11
(dp147
sbsg52
g0
(g1
g2
Ntp148
Rp149
(dp150
g6
I2
sg7
S'5.89804352581'
p151
sg9
g52
sg11
(dp152
sbssbsS'Guest Svc v2'
p153
g0
(g1
g2
Ntp154
Rp155
(dp156
g6
I1
sg7
S'Node'
p157
sg9
S'Guest Svc v2'
p158
sg11
(dp159
S'Passport'
p160
g0
(g1
g2
Ntp161
Rp162
(dp163
g6
I1
sg7
S'Target'
p164
sg9
S'Passport'
p165
sg11
(dp166
g27
g0
(g1
g2
Ntp167
Rp168
(dp169
g6
I1
sg7
S'0.363587051619'
p170
sg9
g27
sg11
(dp171
sbsS'TBD'
p172
g0
(g1
g2
Ntp173
Rp174
(dp175
g6
I1
sg7
S'Edge'
p176
sg9
S'TBD'
p177
sg11
(dp178
sbsg58
g0
(g1
g2
Ntp179
Rp180
(dp181
g6
I1
sg7
S'2.78314304462'
p182
sg9
g58
sg11
(dp183
sbsg64
g0
(g1
g2
Ntp184
Rp185
(dp186
g6
I1
sg7
S'1.02504155731'
p187
sg9
g64
sg11
(dp188
sbsg52
g0
(g1
g2
Ntp189
Rp190
(dp191
g6
I1
sg7
S'0.431750874891'
p192
sg9
g52
sg11
(dp193
sbssbsg27
g0
(g1
g2
Ntp194
Rp195
(dp196
g6
I4
sg7
S'0.363587051619'
p197
sg9
g27
sg11
(dp198
sbsS'Travel Box UI'
p199
g0
(g1
g2
Ntp200
Rp201
(dp202
g6
I1
sg7
S'Target'
p203
sg9
S'Travel Box UI'
p204
sg11
(dp205
g27
g0
(g1
g2
Ntp206
Rp207
(dp208
g6
I1
sg7
S'0.363587051619'
p209
sg9
g27
sg11
(dp210
sbsS'TBD'
p211
g0
(g1
g2
Ntp212
Rp213
(dp214
g6
I1
sg7
S'Edge'
p215
sg9
S'TBD'
p216
sg11
(dp217
sbsg58
g0
(g1
g2
Ntp218
Rp219
(dp220
g6
I1
sg7
S'1.53569772528'
p221
sg9
g58
sg11
(dp222
sbsg64
g0
(g1
g2
Ntp223
Rp224
(dp225
g6
I1
sg7
S'1.02504155731'
p226
sg9
g64
sg11
(dp227
sbsg52
g0
(g1
g2
Ntp228
Rp229
(dp230
g6
I1
sg7
S'0.431750874891'
p231
sg9
g52
sg11
(dp232
sbssbsg52
g0
(g1
g2
Ntp233
Rp234
(dp235
g6
I4
sg7
S'4.46388232721'
p236
sg9
g52
sg11
(dp237
sbsg58
g0
(g1
g2
Ntp238
Rp239
(dp240
g6
I4
sg7
S'2.17969160105'
p241
sg9
g58
sg11
(dp242
sbsg64
g0
(g1
g2
Ntp243
Rp244
(dp245
g6
I4
sg7
S'1.09622156605'
p246
sg9
g64
sg11
(dp247
sbsS'Travel Box'
p248
g0
(g1
g2
Ntp249
Rp250
(dp251
g6
I1
sg7
S'Target'
p252
sg9
S'Travel Box'
p253
sg11
(dp254
g27
g0
(g1
g2
Ntp255
Rp256
(dp257
g6
I1
sg7
S'0.363587051619'
p258
sg9
g27
sg11
(dp259
sbsS'TBD'
p260
g0
(g1
g2
Ntp261
Rp262
(dp263
g6
I1
sg7
S'Edge'
p264
sg9
S'TBD'
p265
sg11
(dp266
sbsg58
g0
(g1
g2
Ntp267
Rp268
(dp269
g6
I1
sg7
S'1.56100284339'
p270
sg9
g58
sg11
(dp271
sbsg64
g0
(g1
g2
Ntp272
Rp273
(dp274
g6
I1
sg7
S'1.02504155731'
p275
sg9
g64
sg11
(dp276
sbsg52
g0
(g1
g2
Ntp277
Rp278
(dp279
g6
I1
sg7
S'8.36384733158'
p280
sg9
g52
sg11
(dp281
sbssbssbsS'Data Warehouse'
p282
g0
(g1
g2
Ntp283
Rp284
(dp285
g6
I1
sg7
S'Node'
p286
sg9
S'Data Warehouse'
p287
sg11
(dp288
g27
g0
(g1
g2
Ntp289
Rp290
(dp291
g6
I1
sg7
S'0.363587051619'
p292
sg9
g27
sg11
(dp293
sbsg58
g0
(g1
g2
Ntp294
Rp295
(dp296
g6
I1
sg7
S'4.74524934383'
p297
sg9
g58
sg11
(dp298
sbsg64
g0
(g1
g2
Ntp299
Rp300
(dp301
g6
I1
sg7
S'2.64279746282'
p302
sg9
g64
sg11
(dp303
sbsg52
g0
(g1
g2
Ntp304
Rp305
(dp306
g6
I1
sg7
S'4.46531605424'
p307
sg9
g52
sg11
(dp308
sbssbsS'Travel Box UI'
p309
g0
(g1
g2
Ntp310
Rp311
(dp312
g6
I1
sg7
S'Node'
p313
sg9
S'Travel Box UI'
p314
sg11
(dp315
g27
g0
(g1
g2
Ntp316
Rp317
(dp318
g6
I5
sg7
S'0.363587051619'
p319
sg9
g27
sg11
(dp320
sbsS'Guest Svc v2'
p321
g0
(g1
g2
Ntp322
Rp323
(dp324
g6
I16
sg7
S'Target'
p325
sg9
S'Guest Svc v2'
p326
sg11
(dp327
S'CreateUpdateLookup Travel Agency  Agents'
p328
g0
(g1
g2
Ntp329
Rp330
(dp331
g6
I4
sg7
S'Edge'
p332
sg9
S'CreateUpdateLookup Travel Agency  Agents'
p333
sg11
(dp334
sbsg27
g0
(g1
g2
Ntp335
Rp336
(dp337
g6
I16
sg7
S'0.363587051619'
p338
sg9
g27
sg11
(dp339
sbsS'Lookup  Guest'
p340
g0
(g1
g2
Ntp341
Rp342
(dp343
g6
I4
sg7
S'Edge'
p344
sg9
S'Lookup  Guest'
p345
sg11
(dp346
sbsg52
g0
(g1
g2
Ntp347
Rp348
(dp349
g6
I16
sg7
S'4.46388232721'
p350
sg9
g52
sg11
(dp351
sbsg58
g0
(g1
g2
Ntp352
Rp353
(dp354
g6
I16
sg7
S'2.17969160105'
p355
sg9
g58
sg11
(dp356
sbsg64
g0
(g1
g2
Ntp357
Rp358
(dp359
g6
I16
sg7
S'1.09622156605'
p360
sg9
g64
sg11
(dp361
sbsS'Create  Guest  Sync Travel Agency  Agents'
p362
g0
(g1
g2
Ntp363
Rp364
(dp365
g6
I4
sg7
S'Edge'
p366
sg9
S'Create  Guest  Sync Travel Agency  Agents'
p367
sg11
(dp368
sbsS'CreateUpdate  Lookup  Guest'
p369
g0
(g1
g2
Ntp370
Rp371
(dp372
g6
I4
sg7
S'Edge'
p373
sg9
S'CreateUpdate  Lookup  Guest'
p374
sg11
(dp375
sbssbsg58
g0
(g1
g2
Ntp376
Rp377
(dp378
g6
I5
sg7
S'1.53569772528'
p379
sg9
g58
sg11
(dp380
sbsg64
g0
(g1
g2
Ntp381
Rp382
(dp383
g6
I5
sg7
S'1.02504155731'
p384
sg9
g64
sg11
(dp385
sbsg52
g0
(g1
g2
Ntp386
Rp387
(dp388
g6
I5
sg7
S'0.431750874891'
p389
sg9
g52
sg11
(dp390
sbssbsS'WDPRO'
p391
g0
(g1
g2
Ntp392
Rp393
(dp394
g6
I1
sg7
S'Node'
p395
sg9
S'WDPRO'
p396
sg11
(dp397
g27
g0
(g1
g2
Ntp398
Rp399
(dp400
g6
I2
sg7
S'0.363587051619'
p401
sg9
g27
sg11
(dp402
sbsS'Guest Svc v2'
p403
g0
(g1
g2
Ntp404
Rp405
(dp406
g6
I4
sg7
S'Target'
p407
sg9
S'Guest Svc v2'
p408
sg11
(dp409
g27
g0
(g1
g2
Ntp410
Rp411
(dp412
g6
I4
sg7
S'0.363587051619'
p413
sg9
g27
sg11
(dp414
sbsS'CreateUpdate  Lookup  Guest  Travel AgencyAgents'
p415
g0
(g1
g2
Ntp416
Rp417
(dp418
g6
I4
sg7
S'Edge'
p419
sg9
S'CreateUpdate  Lookup  Guest  Travel AgencyAgents'
p420
sg11
(dp421
sbsg58
g0
(g1
g2
Ntp422
Rp423
(dp424
g6
I4
sg7
S'2.17969160105'
p425
sg9
g58
sg11
(dp426
sbsg64
g0
(g1
g2
Ntp427
Rp428
(dp429
g6
I4
sg7
S'1.09622156605'
p430
sg9
g64
sg11
(dp431
sbsg52
g0
(g1
g2
Ntp432
Rp433
(dp434
g6
I4
sg7
S'4.46388232721'
p435
sg9
g52
sg11
(dp436
sbssbsg58
g0
(g1
g2
Ntp437
Rp438
(dp439
g6
I2
sg7
S'4.89865048119'
p440
sg9
g58
sg11
(dp441
sbsg64
g0
(g1
g2
Ntp442
Rp443
(dp444
g6
I2
sg7
S'1.02504155731'
p445
sg9
g64
sg11
(dp446
sbsg52
g0
(g1
g2
Ntp447
Rp448
(dp449
g6
I2
sg7
S'0.431750874891'
p450
sg9
g52
sg11
(dp451
sbssbsS'SBC'
p452
g0
(g1
g2
Ntp453
Rp454
(dp455
g6
I1
sg7
S'Node'
p456
sg9
S'SBC'
p457
sg11
(dp458
g27
g0
(g1
g2
Ntp459
Rp460
(dp461
g6
I1
sg7
S'0.363587051619'
p462
sg9
g27
sg11
(dp463
sbsg58
g0
(g1
g2
Ntp464
Rp465
(dp466
g6
I1
sg7
S'4.25152559055'
p467
sg9
g58
sg11
(dp468
sbsg64
g0
(g1
g2
Ntp469
Rp470
(dp471
g6
I1
sg7
S'1.02504155731'
p472
sg9
g64
sg11
(dp473
sbsg52
g0
(g1
g2
Ntp474
Rp475
(dp476
g6
I1
sg7
S'0.431750874891'
p477
sg9
g52
sg11
(dp478
sbssbsS'Segment Services'
p479
g0
(g1
g2
Ntp480
Rp481
(dp482
g6
I1
sg7
S'Node'
p483
sg9
S'Segment Services'
p484
sg11
(dp485
g27
g0
(g1
g2
Ntp486
Rp487
(dp488
g6
I2
sg7
S'0.363587051619'
p489
sg9
g27
sg11
(dp490
sbsS'WDPRO'
p491
g0
(g1
g2
Ntp492
Rp493
(dp494
g6
I1
sg7
S'Target'
p495
sg9
S'WDPRO'
p496
sg11
(dp497
g27
g0
(g1
g2
Ntp498
Rp499
(dp500
g6
I1
sg7
S'0.363587051619'
p501
sg9
g27
sg11
(dp502
sbsS'TBD'
p503
g0
(g1
g2
Ntp504
Rp505
(dp506
g6
I1
sg7
S'Edge'
p507
sg9
S'TBD'
p508
sg11
(dp509
sbsg58
g0
(g1
g2
Ntp510
Rp511
(dp512
g6
I1
sg7
S'4.89865048119'
p513
sg9
g58
sg11
(dp514
sbsg64
g0
(g1
g2
Ntp515
Rp516
(dp517
g6
I1
sg7
S'1.02504155731'
p518
sg9
g64
sg11
(dp519
sbsg52
g0
(g1
g2
Ntp520
Rp521
(dp522
g6
I1
sg7
S'0.431750874891'
p523
sg9
g52
sg11
(dp524
sbssbsg58
g0
(g1
g2
Ntp525
Rp526
(dp527
g6
I2
sg7
S'4.90095909886'
p528
sg9
g58
sg11
(dp529
sbsg64
g0
(g1
g2
Ntp530
Rp531
(dp532
g6
I2
sg7
S'0.866727909011'
p533
sg9
g64
sg11
(dp534
sbsg52
g0
(g1
g2
Ntp535
Rp536
(dp537
g6
I2
sg7
S'1.70680227472'
p538
sg9
g52
sg11
(dp539
sbssbsS'Passport'
p540
g0
(g1
g2
Ntp541
Rp542
(dp543
g6
I1
sg7
S'Node'
p544
sg9
S'Passport'
p545
sg11
(dp546
g27
g0
(g1
g2
Ntp547
Rp548
(dp549
g6
I2
sg7
S'0.363587051619'
p550
sg9
g27
sg11
(dp551
sbsS'Guest Svc v2'
p552
g0
(g1
g2
Ntp553
Rp554
(dp555
g6
I4
sg7
S'Target'
p556
sg9
S'Guest Svc v2'
p557
sg11
(dp558
g27
g0
(g1
g2
Ntp559
Rp560
(dp561
g6
I4
sg7
S'0.363587051619'
p562
sg9
g27
sg11
(dp563
sbsS'TBD'
p564
g0
(g1
g2
Ntp565
Rp566
(dp567
g6
I4
sg7
S'Edge'
p568
sg9
S'TBD'
p569
sg11
(dp570
sbsg58
g0
(g1
g2
Ntp571
Rp572
(dp573
g6
I4
sg7
S'2.17969160105'
p574
sg9
g58
sg11
(dp575
sbsg64
g0
(g1
g2
Ntp576
Rp577
(dp578
g6
I4
sg7
S'1.09622156605'
p579
sg9
g64
sg11
(dp580
sbsg52
g0
(g1
g2
Ntp581
Rp582
(dp583
g6
I4
sg7
S'4.46388232721'
p584
sg9
g52
sg11
(dp585
sbssbsg58
g0
(g1
g2
Ntp586
Rp587
(dp588
g6
I2
sg7
S'2.78314304462'
p589
sg9
g58
sg11
(dp590
sbsg64
g0
(g1
g2
Ntp591
Rp592
(dp593
g6
I2
sg7
S'1.02504155731'
p594
sg9
g64
sg11
(dp595
sbsg52
g0
(g1
g2
Ntp596
Rp597
(dp598
g6
I2
sg7
S'0.431750874891'
p599
sg9
g52
sg11
(dp600
sbssbsS'IVR'
p601
g0
(g1
g2
Ntp602
Rp603
(dp604
g6
I1
sg7
S'Node'
p605
sg9
S'IVR'
p606
sg11
(dp607
g27
g0
(g1
g2
Ntp608
Rp609
(dp610
g6
I1
sg7
S'0.363587051619'
p611
sg9
g27
sg11
(dp612
sbsg58
g0
(g1
g2
Ntp613
Rp614
(dp615
g6
I1
sg7
S'2.16677384077'
p616
sg9
g58
sg11
(dp617
sbsg64
g0
(g1
g2
Ntp618
Rp619
(dp620
g6
I1
sg7
S'1.02504155731'
p621
sg9
g64
sg11
(dp622
sbsg52
g0
(g1
g2
Ntp623
Rp624
(dp625
g6
I1
sg7
S'0.431750874891'
p626
sg9
g52
sg11
(dp627
sbssbsS'Travel Box'
p628
g0
(g1
g2
Ntp629
Rp630
(dp631
g6
I1
sg7
S'Node'
p632
sg9
S'Travel Box'
p633
sg11
(dp634
S'EAI'
p635
g0
(g1
g2
Ntp636
Rp637
(dp638
g6
I1
sg7
S'Target'
p639
sg9
S'EAI'
p640
sg11
(dp641
g27
g0
(g1
g2
Ntp642
Rp643
(dp644
g6
I1
sg7
S'0.944622703412'
p645
sg9
g27
sg11
(dp646
sbsS'TBD'
p647
g0
(g1
g2
Ntp648
Rp649
(dp650
g6
I1
sg7
S'Edge'
p651
sg9
S'TBD'
p652
sg11
(dp653
sbsg58
g0
(g1
g2
Ntp654
Rp655
(dp656
g6
I1
sg7
S'4.31149168854'
p657
sg9
g58
sg11
(dp658
sbsg64
g0
(g1
g2
Ntp659
Rp660
(dp661
g6
I1
sg7
S'0.594865485564'
p662
sg9
g64
sg11
(dp663
sbsg52
g0
(g1
g2
Ntp664
Rp665
(dp666
g6
I1
sg7
S'2.95868000875'
p667
sg9
g52
sg11
(dp668
sbssbsS'Guest Svc v2'
p669
g0
(g1
g2
Ntp670
Rp671
(dp672
g6
I4
sg7
S'Target'
p673
sg9
S'Guest Svc v2'
p674
sg11
(dp675
S'CreateUpdate Guest'
p676
g0
(g1
g2
Ntp677
Rp678
(dp679
g6
I4
sg7
S'Edge'
p680
sg9
S'CreateUpdate Guest'
p681
sg11
(dp682
sbsg27
g0
(g1
g2
Ntp683
Rp684
(dp685
g6
I4
sg7
S'0.363587051619'
p686
sg9
g27
sg11
(dp687
sbsg58
g0
(g1
g2
Ntp688
Rp689
(dp690
g6
I4
sg7
S'2.17969160105'
p691
sg9
g58
sg11
(dp692
sbsg64
g0
(g1
g2
Ntp693
Rp694
(dp695
g6
I4
sg7
S'1.09622156605'
p696
sg9
g64
sg11
(dp697
sbsg52
g0
(g1
g2
Ntp698
Rp699
(dp700
g6
I4
sg7
S'4.46388232721'
p701
sg9
g52
sg11
(dp702
sbssbsg27
g0
(g1
g2
Ntp703
Rp704
(dp705
g6
I4
sg7
S'0.363587051619'
p706
sg9
g27
sg11
(dp707
sbsS'Travel Box UI'
p708
g0
(g1
g2
Ntp709
Rp710
(dp711
g6
I1
sg7
S'Target'
p712
sg9
S'Travel Box UI'
p713
sg11
(dp714
g27
g0
(g1
g2
Ntp715
Rp716
(dp717
g6
I1
sg7
S'0.363587051619'
p718
sg9
g27
sg11
(dp719
sbsS'TBD'
p720
g0
(g1
g2
Ntp721
Rp722
(dp723
g6
I1
sg7
S'Edge'
p724
sg9
S'TBD'
p725
sg11
(dp726
sbsg58
g0
(g1
g2
Ntp727
Rp728
(dp729
g6
I1
sg7
S'1.53569772528'
p730
sg9
g58
sg11
(dp731
sbsg64
g0
(g1
g2
Ntp732
Rp733
(dp734
g6
I1
sg7
S'1.02504155731'
p735
sg9
g64
sg11
(dp736
sbsg52
g0
(g1
g2
Ntp737
Rp738
(dp739
g6
I1
sg7
S'0.431750874891'
p740
sg9
g52
sg11
(dp741
sbssbsg52
g0
(g1
g2
Ntp742
Rp743
(dp744
g6
I4
sg7
S'8.36384733158'
p745
sg9
g52
sg11
(dp746
sbsg58
g0
(g1
g2
Ntp747
Rp748
(dp749
g6
I4
sg7
S'1.56100284339'
p750
sg9
g58
sg11
(dp751
sbsg64
g0
(g1
g2
Ntp752
Rp753
(dp754
g6
I4
sg7
S'1.02504155731'
p755
sg9
g64
sg11
(dp756
sbssbsS'Dreams'
p757
g0
(g1
g2
Ntp758
Rp759
(dp760
g6
I1
sg7
S'Node'
p761
sg9
S'Dreams'
p762
sg11
(dp763
g27
g0
(g1
g2
Ntp764
Rp765
(dp766
g6
I2
sg7
S'0.363587051619'
p767
sg9
g27
sg11
(dp768
sbsS'Guest Svc v2'
p769
g0
(g1
g2
Ntp770
Rp771
(dp772
g6
I4
sg7
S'Target'
p773
sg9
S'Guest Svc v2'
p774
sg11
(dp775
g27
g0
(g1
g2
Ntp776
Rp777
(dp778
g6
I4
sg7
S'0.363587051619'
p779
sg9
g27
sg11
(dp780
sbsS'Retrieve GuestTravel Agency'
p781
g0
(g1
g2
Ntp782
Rp783
(dp784
g6
I4
sg7
S'Edge'
p785
sg9
S'Retrieve GuestTravel Agency'
p786
sg11
(dp787
sbsg58
g0
(g1
g2
Ntp788
Rp789
(dp790
g6
I4
sg7
S'2.17969160105'
p791
sg9
g58
sg11
(dp792
sbsg64
g0
(g1
g2
Ntp793
Rp794
(dp795
g6
I4
sg7
S'1.09622156605'
p796
sg9
g64
sg11
(dp797
sbsg52
g0
(g1
g2
Ntp798
Rp799
(dp800
g6
I4
sg7
S'4.46388232721'
p801
sg9
g52
sg11
(dp802
sbssbsg58
g0
(g1
g2
Ntp803
Rp804
(dp805
g6
I2
sg7
S'2.17323272091'
p806
sg9
g58
sg11
(dp807
sbsg64
g0
(g1
g2
Ntp808
Rp809
(dp810
g6
I2
sg7
S'1.02504155731'
p811
sg9
g64
sg11
(dp812
sbsg52
g0
(g1
g2
Ntp813
Rp814
(dp815
g6
I2
sg7
S'8.36384733158'
p816
sg9
g52
sg11
(dp817
sbssbssbsS'2.Party  DLR'
p818
g0
(g1
g2
Ntp819
Rp820
(dp821
g6
I1
sg7
S'Slide'
p822
sg9
S'2.Party  DLR'
p823
sg11
(dp824
S'EAI'
p825
g0
(g1
g2
Ntp826
Rp827
(dp828
g6
I1
sg7
S'Node'
p829
sg9
S'EAI'
p830
sg11
(dp831
g27
g0
(g1
g2
Ntp832
Rp833
(dp834
g6
I1
sg7
S'0.944622703412'
p835
sg9
g27
sg11
(dp836
sbsg58
g0
(g1
g2
Ntp837
Rp838
(dp839
g6
I1
sg7
S'4.31149168854'
p840
sg9
g58
sg11
(dp841
sbsg64
g0
(g1
g2
Ntp842
Rp843
(dp844
g6
I1
sg7
S'0.594865485564'
p845
sg9
g64
sg11
(dp846
sbsg52
g0
(g1
g2
Ntp847
Rp848
(dp849
g6
I1
sg7
S'2.95868000875'
p850
sg9
g52
sg11
(dp851
sbssbsS'LMS'
p852
g0
(g1
g2
Ntp853
Rp854
(dp855
g6
I1
sg7
S'Node'
p856
sg9
S'LMS'
p857
sg11
(dp858
g27
g0
(g1
g2
Ntp859
Rp860
(dp861
g6
I12
sg7
S'0.363587051619'
p862
sg9
g27
sg11
(dp863
sbsS'LMS'
p864
g0
(g1
g2
Ntp865
Rp866
(dp867
g6
I41
sg7
S'Target'
p868
sg9
S'LMS'
p869
sg11
(dp870
S'CreateUpdateLookup Travel Agency  Agents'
p871
g0
(g1
g2
Ntp872
Rp873
(dp874
g6
I4
sg7
S'Edge'
p875
sg9
S'CreateUpdateLookup Travel Agency  Agents'
p876
sg11
(dp877
sbsS'Create Travel  AgencyAgents'
p878
g0
(g1
g2
Ntp879
Rp880
(dp881
g6
I4
sg7
S'Edge'
p882
sg9
S'Create Travel  AgencyAgents'
p883
sg11
(dp884
sbsg27
g0
(g1
g2
Ntp885
Rp886
(dp887
g6
I41
sg7
S'0.363587051619'
p888
sg9
g27
sg11
(dp889
sbsS'Book with Guest Id Ref SWID GUID GoMaster Guest Id'
p890
g0
(g1
g2
Ntp891
Rp892
(dp893
g6
I4
sg7
S'Edge'
p894
sg9
S'Book with Guest Id Ref SWID GUID GoMaster Guest Id'
p895
sg11
(dp896
sbsS'Lookup  Guest'
p897
g0
(g1
g2
Ntp898
Rp899
(dp900
g6
I4
sg7
S'Edge'
p901
sg9
S'Lookup  Guest'
p902
sg11
(dp903
sbsg52
g0
(g1
g2
Ntp904
Rp905
(dp906
g6
I41
sg7
S'8.36384733158'
p907
sg9
g52
sg11
(dp908
sbsS'CreateUpdate  Lookup  Guest  Travel AgencyAgents'
p909
g0
(g1
g2
Ntp910
Rp911
(dp912
g6
I4
sg7
S'Edge'
p913
sg9
S'CreateUpdate  Lookup  Guest  Travel AgencyAgents'
p914
sg11
(dp915
sbsS'Guest RQRS GuestDetails  RQRS GuestQuery  RQRS Odsslfguest   RQRS Organization RQRS'
p916
g0
(g1
g2
Ntp917
Rp918
(dp919
g6
I4
sg7
S'Edge'
p920
sg9
S'Guest RQRS GuestDetails  RQRS GuestQuery  RQRS Odsslfguest   RQRS Organization RQRS'
p921
sg11
(dp922
sbsg58
g0
(g1
g2
Ntp923
Rp924
(dp925
g6
I41
sg7
S'2.90415791776'
p926
sg9
g58
sg11
(dp927
sbsg64
g0
(g1
g2
Ntp928
Rp929
(dp930
g6
I41
sg7
S'1.02504155731'
p931
sg9
g64
sg11
(dp932
sbsS'Create  Guest  Sync Travel Agency  Agents'
p933
g0
(g1
g2
Ntp934
Rp935
(dp936
g6
I4
sg7
S'Edge'
p937
sg9
S'Create  Guest  Sync Travel Agency  Agents'
p938
sg11
(dp939
sbsS'CreateUpdate Guest'
p940
g0
(g1
g2
Ntp941
Rp942
(dp943
g6
I4
sg7
S'Edge'
p944
sg9
S'CreateUpdate Guest'
p945
sg11
(dp946
sbsS'CreateUpdate  Lookup  Guest'
p947
g0
(g1
g2
Ntp948
Rp949
(dp950
g6
I4
sg7
S'Edge'
p951
sg9
S'CreateUpdate  Lookup  Guest'
p952
sg11
(dp953
sbsS'TBD'
p954
g0
(g1
g2
Ntp955
Rp956
(dp957
g6
I5
sg7
S'Edge'
p958
sg9
S'TBD'
p959
sg11
(dp960
sbssbsg58
g0
(g1
g2
Ntp961
Rp962
(dp963
g6
I12
sg7
S'2.90415791776'
p964
sg9
g58
sg11
(dp965
sbsg64
g0
(g1
g2
Ntp966
Rp967
(dp968
g6
I12
sg7
S'1.02504155731'
p969
sg9
g64
sg11
(dp970
sbsg52
g0
(g1
g2
Ntp971
Rp972
(dp973
g6
I12
sg7
S'8.36384733158'
p974
sg9
g52
sg11
(dp975
sbssbsS'Guest Svc v1'
p976
g0
(g1
g2
Ntp977
Rp978
(dp979
g6
I1
sg7
S'Node'
p980
sg9
S'Guest Svc v1'
p981
sg11
(dp982
S'Dreams'
p983
g0
(g1
g2
Ntp984
Rp985
(dp986
g6
I1
sg7
S'Target'
p987
sg9
S'Dreams'
p988
sg11
(dp989
g27
g0
(g1
g2
Ntp990
Rp991
(dp992
g6
I1
sg7
S'0.363587051619'
p993
sg9
g27
sg11
(dp994
sbsS'TBD'
p995
g0
(g1
g2
Ntp996
Rp997
(dp998
g6
I1
sg7
S'Edge'
p999
sg9
S'TBD'
p1000
sg11
(dp1001
sbsg58
g0
(g1
g2
Ntp1002
Rp1003
(dp1004
g6
I1
sg7
S'2.17323272091'
p1005
sg9
g58
sg11
(dp1006
sbsg64
g0
(g1
g2
Ntp1007
Rp1008
(dp1009
g6
I1
sg7
S'1.02504155731'
p1010
sg9
g64
sg11
(dp1011
sbsg52
g0
(g1
g2
Ntp1012
Rp1013
(dp1014
g6
I1
sg7
S'8.36384733158'
p1015
sg9
g52
sg11
(dp1016
sbssbsg27
g0
(g1
g2
Ntp1017
Rp1018
(dp1019
g6
I2
sg7
S'0.363587051619'
p1020
sg9
g27
sg11
(dp1021
sbsg58
g0
(g1
g2
Ntp1022
Rp1023
(dp1024
g6
I2
sg7
S'2.1951891951'
p1025
sg9
g58
sg11
(dp1026
sbsg64
g0
(g1
g2
Ntp1027
Rp1028
(dp1029
g6
I2
sg7
S'1.09622156605'
p1030
sg9
g64
sg11
(dp1031
sbsg52
g0
(g1
g2
Ntp1032
Rp1033
(dp1034
g6
I2
sg7
S'5.89804352581'
p1035
sg9
g52
sg11
(dp1036
sbssbsS'Guest Svc v2'
p1037
g0
(g1
g2
Ntp1038
Rp1039
(dp1040
g6
I1
sg7
S'Node'
p1041
sg9
S'Guest Svc v2'
p1042
sg11
(dp1043
S'Passport'
p1044
g0
(g1
g2
Ntp1045
Rp1046
(dp1047
g6
I1
sg7
S'Target'
p1048
sg9
S'Passport'
p1049
sg11
(dp1050
g27
g0
(g1
g2
Ntp1051
Rp1052
(dp1053
g6
I1
sg7
S'0.363587051619'
p1054
sg9
g27
sg11
(dp1055
sbsS'TBD'
p1056
g0
(g1
g2
Ntp1057
Rp1058
(dp1059
g6
I1
sg7
S'Edge'
p1060
sg9
S'TBD'
p1061
sg11
(dp1062
sbsg58
g0
(g1
g2
Ntp1063
Rp1064
(dp1065
g6
I1
sg7
S'2.78314304462'
p1066
sg9
g58
sg11
(dp1067
sbsg64
g0
(g1
g2
Ntp1068
Rp1069
(dp1070
g6
I1
sg7
S'1.02504155731'
p1071
sg9
g64
sg11
(dp1072
sbsg52
g0
(g1
g2
Ntp1073
Rp1074
(dp1075
g6
I1
sg7
S'0.431750874891'
p1076
sg9
g52
sg11
(dp1077
sbssbsg27
g0
(g1
g2
Ntp1078
Rp1079
(dp1080
g6
I4
sg7
S'0.363587051619'
p1081
sg9
g27
sg11
(dp1082
sbsS'Travel Box UI'
p1083
g0
(g1
g2
Ntp1084
Rp1085
(dp1086
g6
I1
sg7
S'Target'
p1087
sg9
S'Travel Box UI'
p1088
sg11
(dp1089
g27
g0
(g1
g2
Ntp1090
Rp1091
(dp1092
g6
I1
sg7
S'0.363587051619'
p1093
sg9
g27
sg11
(dp1094
sbsS'TBD'
p1095
g0
(g1
g2
Ntp1096
Rp1097
(dp1098
g6
I1
sg7
S'Edge'
p1099
sg9
S'TBD'
p1100
sg11
(dp1101
sbsg58
g0
(g1
g2
Ntp1102
Rp1103
(dp1104
g6
I1
sg7
S'1.53569772528'
p1105
sg9
g58
sg11
(dp1106
sbsg64
g0
(g1
g2
Ntp1107
Rp1108
(dp1109
g6
I1
sg7
S'1.02504155731'
p1110
sg9
g64
sg11
(dp1111
sbsg52
g0
(g1
g2
Ntp1112
Rp1113
(dp1114
g6
I1
sg7
S'0.431750874891'
p1115
sg9
g52
sg11
(dp1116
sbssbsg52
g0
(g1
g2
Ntp1117
Rp1118
(dp1119
g6
I4
sg7
S'4.46388232721'
p1120
sg9
g52
sg11
(dp1121
sbsg58
g0
(g1
g2
Ntp1122
Rp1123
(dp1124
g6
I4
sg7
S'2.17969160105'
p1125
sg9
g58
sg11
(dp1126
sbsg64
g0
(g1
g2
Ntp1127
Rp1128
(dp1129
g6
I4
sg7
S'1.09622156605'
p1130
sg9
g64
sg11
(dp1131
sbsS'Travel Box'
p1132
g0
(g1
g2
Ntp1133
Rp1134
(dp1135
g6
I1
sg7
S'Target'
p1136
sg9
S'Travel Box'
p1137
sg11
(dp1138
g27
g0
(g1
g2
Ntp1139
Rp1140
(dp1141
g6
I1
sg7
S'0.363587051619'
p1142
sg9
g27
sg11
(dp1143
sbsS'TBD'
p1144
g0
(g1
g2
Ntp1145
Rp1146
(dp1147
g6
I1
sg7
S'Edge'
p1148
sg9
S'TBD'
p1149
sg11
(dp1150
sbsg58
g0
(g1
g2
Ntp1151
Rp1152
(dp1153
g6
I1
sg7
S'1.56100284339'
p1154
sg9
g58
sg11
(dp1155
sbsg64
g0
(g1
g2
Ntp1156
Rp1157
(dp1158
g6
I1
sg7
S'1.02504155731'
p1159
sg9
g64
sg11
(dp1160
sbsg52
g0
(g1
g2
Ntp1161
Rp1162
(dp1163
g6
I1
sg7
S'8.36384733158'
p1164
sg9
g52
sg11
(dp1165
sbssbssbsS'Data Warehouse'
p1166
g0
(g1
g2
Ntp1167
Rp1168
(dp1169
g6
I1
sg7
S'Node'
p1170
sg9
S'Data Warehouse'
p1171
sg11
(dp1172
g27
g0
(g1
g2
Ntp1173
Rp1174
(dp1175
g6
I1
sg7
S'0.363587051619'
p1176
sg9
g27
sg11
(dp1177
sbsg58
g0
(g1
g2
Ntp1178
Rp1179
(dp1180
g6
I1
sg7
S'4.74524934383'
p1181
sg9
g58
sg11
(dp1182
sbsg64
g0
(g1
g2
Ntp1183
Rp1184
(dp1185
g6
I1
sg7
S'2.64279746282'
p1186
sg9
g64
sg11
(dp1187
sbsg52
g0
(g1
g2
Ntp1188
Rp1189
(dp1190
g6
I1
sg7
S'4.46531605424'
p1191
sg9
g52
sg11
(dp1192
sbssbsS'Travel Box UI'
p1193
g0
(g1
g2
Ntp1194
Rp1195
(dp1196
g6
I1
sg7
S'Node'
p1197
sg9
S'Travel Box UI'
p1198
sg11
(dp1199
g27
g0
(g1
g2
Ntp1200
Rp1201
(dp1202
g6
I1
sg7
S'0.363587051619'
p1203
sg9
g27
sg11
(dp1204
sbsg58
g0
(g1
g2
Ntp1205
Rp1206
(dp1207
g6
I1
sg7
S'1.53569772528'
p1208
sg9
g58
sg11
(dp1209
sbsg64
g0
(g1
g2
Ntp1210
Rp1211
(dp1212
g6
I1
sg7
S'1.02504155731'
p1213
sg9
g64
sg11
(dp1214
sbsg52
g0
(g1
g2
Ntp1215
Rp1216
(dp1217
g6
I1
sg7
S'0.431750874891'
p1218
sg9
g52
sg11
(dp1219
sbssbsS'WDPRO'
p1220
g0
(g1
g2
Ntp1221
Rp1222
(dp1223
g6
I1
sg7
S'Node'
p1224
sg9
S'WDPRO'
p1225
sg11
(dp1226
g27
g0
(g1
g2
Ntp1227
Rp1228
(dp1229
g6
I1
sg7
S'0.363587051619'
p1230
sg9
g27
sg11
(dp1231
sbsg58
g0
(g1
g2
Ntp1232
Rp1233
(dp1234
g6
I1
sg7
S'4.89865048119'
p1235
sg9
g58
sg11
(dp1236
sbsg64
g0
(g1
g2
Ntp1237
Rp1238
(dp1239
g6
I1
sg7
S'1.02504155731'
p1240
sg9
g64
sg11
(dp1241
sbsg52
g0
(g1
g2
Ntp1242
Rp1243
(dp1244
g6
I1
sg7
S'0.431750874891'
p1245
sg9
g52
sg11
(dp1246
sbssbsS'SBC'
p1247
g0
(g1
g2
Ntp1248
Rp1249
(dp1250
g6
I1
sg7
S'Node'
p1251
sg9
S'SBC'
p1252
sg11
(dp1253
g27
g0
(g1
g2
Ntp1254
Rp1255
(dp1256
g6
I1
sg7
S'0.363587051619'
p1257
sg9
g27
sg11
(dp1258
sbsg58
g0
(g1
g2
Ntp1259
Rp1260
(dp1261
g6
I1
sg7
S'4.25152559055'
p1262
sg9
g58
sg11
(dp1263
sbsg64
g0
(g1
g2
Ntp1264
Rp1265
(dp1266
g6
I1
sg7
S'1.02504155731'
p1267
sg9
g64
sg11
(dp1268
sbsg52
g0
(g1
g2
Ntp1269
Rp1270
(dp1271
g6
I1
sg7
S'0.431750874891'
p1272
sg9
g52
sg11
(dp1273
sbssbsS'Segment Services'
p1274
g0
(g1
g2
Ntp1275
Rp1276
(dp1277
g6
I1
sg7
S'Node'
p1278
sg9
S'Segment Services'
p1279
sg11
(dp1280
g27
g0
(g1
g2
Ntp1281
Rp1282
(dp1283
g6
I2
sg7
S'0.363587051619'
p1284
sg9
g27
sg11
(dp1285
sbsS'WDPRO'
p1286
g0
(g1
g2
Ntp1287
Rp1288
(dp1289
g6
I1
sg7
S'Target'
p1290
sg9
S'WDPRO'
p1291
sg11
(dp1292
g27
g0
(g1
g2
Ntp1293
Rp1294
(dp1295
g6
I1
sg7
S'0.363587051619'
p1296
sg9
g27
sg11
(dp1297
sbsS'TBD'
p1298
g0
(g1
g2
Ntp1299
Rp1300
(dp1301
g6
I1
sg7
S'Edge'
p1302
sg9
S'TBD'
p1303
sg11
(dp1304
sbsg58
g0
(g1
g2
Ntp1305
Rp1306
(dp1307
g6
I1
sg7
S'4.89865048119'
p1308
sg9
g58
sg11
(dp1309
sbsg64
g0
(g1
g2
Ntp1310
Rp1311
(dp1312
g6
I1
sg7
S'1.02504155731'
p1313
sg9
g64
sg11
(dp1314
sbsg52
g0
(g1
g2
Ntp1315
Rp1316
(dp1317
g6
I1
sg7
S'0.431750874891'
p1318
sg9
g52
sg11
(dp1319
sbssbsg58
g0
(g1
g2
Ntp1320
Rp1321
(dp1322
g6
I2
sg7
S'4.90095909886'
p1323
sg9
g58
sg11
(dp1324
sbsg64
g0
(g1
g2
Ntp1325
Rp1326
(dp1327
g6
I2
sg7
S'0.866727909011'
p1328
sg9
g64
sg11
(dp1329
sbsg52
g0
(g1
g2
Ntp1330
Rp1331
(dp1332
g6
I2
sg7
S'1.70680227472'
p1333
sg9
g52
sg11
(dp1334
sbssbsS'Passport'
p1335
g0
(g1
g2
Ntp1336
Rp1337
(dp1338
g6
I1
sg7
S'Node'
p1339
sg9
S'Passport'
p1340
sg11
(dp1341
g27
g0
(g1
g2
Ntp1342
Rp1343
(dp1344
g6
I1
sg7
S'0.363587051619'
p1345
sg9
g27
sg11
(dp1346
sbsg58
g0
(g1
g2
Ntp1347
Rp1348
(dp1349
g6
I1
sg7
S'2.78314304462'
p1350
sg9
g58
sg11
(dp1351
sbsg64
g0
(g1
g2
Ntp1352
Rp1353
(dp1354
g6
I1
sg7
S'1.02504155731'
p1355
sg9
g64
sg11
(dp1356
sbsg52
g0
(g1
g2
Ntp1357
Rp1358
(dp1359
g6
I1
sg7
S'0.431750874891'
p1360
sg9
g52
sg11
(dp1361
sbssbsS'IVR'
p1362
g0
(g1
g2
Ntp1363
Rp1364
(dp1365
g6
I1
sg7
S'Node'
p1366
sg9
S'IVR'
p1367
sg11
(dp1368
g27
g0
(g1
g2
Ntp1369
Rp1370
(dp1371
g6
I1
sg7
S'0.363587051619'
p1372
sg9
g27
sg11
(dp1373
sbsg58
g0
(g1
g2
Ntp1374
Rp1375
(dp1376
g6
I1
sg7
S'2.16677384077'
p1377
sg9
g58
sg11
(dp1378
sbsg64
g0
(g1
g2
Ntp1379
Rp1380
(dp1381
g6
I1
sg7
S'1.02504155731'
p1382
sg9
g64
sg11
(dp1383
sbsg52
g0
(g1
g2
Ntp1384
Rp1385
(dp1386
g6
I1
sg7
S'0.431750874891'
p1387
sg9
g52
sg11
(dp1388
sbssbsS'Travel Box'
p1389
g0
(g1
g2
Ntp1390
Rp1391
(dp1392
g6
I1
sg7
S'Node'
p1393
sg9
S'Travel Box'
p1394
sg11
(dp1395
S'EAI'
p1396
g0
(g1
g2
Ntp1397
Rp1398
(dp1399
g6
I1
sg7
S'Target'
p1400
sg9
S'EAI'
p1401
sg11
(dp1402
g27
g0
(g1
g2
Ntp1403
Rp1404
(dp1405
g6
I1
sg7
S'0.944622703412'
p1406
sg9
g27
sg11
(dp1407
sbsS'TBD'
p1408
g0
(g1
g2
Ntp1409
Rp1410
(dp1411
g6
I1
sg7
S'Edge'
p1412
sg9
S'TBD'
p1413
sg11
(dp1414
sbsg58
g0
(g1
g2
Ntp1415
Rp1416
(dp1417
g6
I1
sg7
S'4.31149168854'
p1418
sg9
g58
sg11
(dp1419
sbsg64
g0
(g1
g2
Ntp1420
Rp1421
(dp1422
g6
I1
sg7
S'0.594865485564'
p1423
sg9
g64
sg11
(dp1424
sbsg52
g0
(g1
g2
Ntp1425
Rp1426
(dp1427
g6
I1
sg7
S'2.95868000875'
p1428
sg9
g52
sg11
(dp1429
sbssbsg27
g0
(g1
g2
Ntp1430
Rp1431
(dp1432
g6
I3
sg7
S'0.363587051619'
p1433
sg9
g27
sg11
(dp1434
sbsS'Travel Box UI'
p1435
g0
(g1
g2
Ntp1436
Rp1437
(dp1438
g6
I1
sg7
S'Target'
p1439
sg9
S'Travel Box UI'
p1440
sg11
(dp1441
g27
g0
(g1
g2
Ntp1442
Rp1443
(dp1444
g6
I1
sg7
S'0.363587051619'
p1445
sg9
g27
sg11
(dp1446
sbsS'TBD'
p1447
g0
(g1
g2
Ntp1448
Rp1449
(dp1450
g6
I1
sg7
S'Edge'
p1451
sg9
S'TBD'
p1452
sg11
(dp1453
sbsg58
g0
(g1
g2
Ntp1454
Rp1455
(dp1456
g6
I1
sg7
S'1.53569772528'
p1457
sg9
g58
sg11
(dp1458
sbsg64
g0
(g1
g2
Ntp1459
Rp1460
(dp1461
g6
I1
sg7
S'1.02504155731'
p1462
sg9
g64
sg11
(dp1463
sbsg52
g0
(g1
g2
Ntp1464
Rp1465
(dp1466
g6
I1
sg7
S'0.431750874891'
p1467
sg9
g52
sg11
(dp1468
sbssbsg52
g0
(g1
g2
Ntp1469
Rp1470
(dp1471
g6
I3
sg7
S'8.36384733158'
p1472
sg9
g52
sg11
(dp1473
sbsg58
g0
(g1
g2
Ntp1474
Rp1475
(dp1476
g6
I3
sg7
S'1.56100284339'
p1477
sg9
g58
sg11
(dp1478
sbsg64
g0
(g1
g2
Ntp1479
Rp1480
(dp1481
g6
I3
sg7
S'1.02504155731'
p1482
sg9
g64
sg11
(dp1483
sbssbsS'Dreams'
p1484
g0
(g1
g2
Ntp1485
Rp1486
(dp1487
g6
I1
sg7
S'Node'
p1488
sg9
S'Dreams'
p1489
sg11
(dp1490
g27
g0
(g1
g2
Ntp1491
Rp1492
(dp1493
g6
I1
sg7
S'0.363587051619'
p1494
sg9
g27
sg11
(dp1495
sbsg58
g0
(g1
g2
Ntp1496
Rp1497
(dp1498
g6
I1
sg7
S'2.17323272091'
p1499
sg9
g58
sg11
(dp1500
sbsg64
g0
(g1
g2
Ntp1501
Rp1502
(dp1503
g6
I1
sg7
S'1.02504155731'
p1504
sg9
g64
sg11
(dp1505
sbsg52
g0
(g1
g2
Ntp1506
Rp1507
(dp1508
g6
I1
sg7
S'8.36384733158'
p1509
sg9
g52
sg11
(dp1510
sbssbssbssb.