ccopy_reg
_reconstructor
p0
(cnl_lib.Concepts
Concepts
p1
c__builtin__
object
p2
Ntp3
Rp4
(dp5
S'count'
p6
I1
sS'typeName'
p7
S'Relations'
p8
sS'name'
p9
S'Application'
p10
sS'cd'
p11
(dp12
S'5.Option 2  DLR Company to Division Mapping'
p13
g0
(g1
g2
Ntp14
Rp15
(dp16
g6
I1
sg7
S'Slide'
p17
sg9
S'5.Option 2  DLR Company to Division Mapping'
p18
sg11
(dp19
sbsS'1.Business Structure'
p20
g0
(g1
g2
Ntp21
Rp22
(dp23
g6
I1
sg7
S'Slide'
p24
sg9
S'1.Business Structure'
p25
sg11
(dp26
S'DIVISION'
p27
g0
(g1
g2
Ntp28
Rp29
(dp30
g6
I1
sg7
S'Node'
p31
sg9
S'DIVISION'
p32
sg11
(dp33
S'h'
p34
g0
(g1
g2
Ntp35
Rp36
(dp37
g6
I1
sg7
S'0.695768810149'
p38
sg9
g34
sg11
(dp39
sbsS't'
p40
g0
(g1
g2
Ntp41
Rp42
(dp43
g6
I1
sg7
S'2.58333442695'
p44
sg9
g40
sg11
(dp45
sbsS'w'
p46
g0
(g1
g2
Ntp47
Rp48
(dp49
g6
I1
sg7
S'9.38767060367'
p50
sg9
g46
sg11
(dp51
sbsS'l'
p52
g0
(g1
g2
Ntp53
Rp54
(dp55
g6
I1
sg7
S'0.293117891514'
p56
sg9
g52
sg11
(dp57
sbssbsS'Direct  Client Travel Agent Tour  Operator   1 Tour Operator  X Internal Bill Incentive  Distributor'
p58
g0
(g1
g2
Ntp59
Rp60
(dp61
g6
I1
sg7
S'Node'
p62
sg9
S'Direct  Client Travel Agent Tour  Operator   1 Tour Operator  X Internal Bill Incentive  Distributor'
p63
sg11
(dp64
g34
g0
(g1
g2
Ntp65
Rp66
(dp67
g6
I1
sg7
S'2.15307086614'
p68
sg9
g34
sg11
(dp69
sbsg40
g0
(g1
g2
Ntp70
Rp71
(dp72
g6
I1
sg7
S'4.76359580052'
p73
sg9
g40
sg11
(dp74
sbsg46
g0
(g1
g2
Ntp75
Rp76
(dp77
g6
I1
sg7
S'1.95230314961'
p78
sg9
g46
sg11
(dp79
sbsg52
g0
(g1
g2
Ntp80
Rp81
(dp82
g6
I1
sg7
S'2.76652559055'
p83
sg9
g52
sg11
(dp84
sbssbsS'Brand  Arbitrary Grouping'
p85
g0
(g1
g2
Ntp86
Rp87
(dp88
g6
I1
sg7
S'Node'
p89
sg9
S'Brand  Arbitrary Grouping'
p90
sg11
(dp91
g34
g0
(g1
g2
Ntp92
Rp93
(dp94
g6
I1
sg7
S'0.572200349956'
p95
sg9
g34
sg11
(dp96
sbsg40
g0
(g1
g2
Ntp97
Rp98
(dp99
g6
I1
sg7
S'4.12356846019'
p100
sg9
g40
sg11
(dp101
sbsg46
g0
(g1
g2
Ntp102
Rp103
(dp104
g6
I1
sg7
S'1.86736548556'
p105
sg9
g46
sg11
(dp106
sbsg52
g0
(g1
g2
Ntp107
Rp108
(dp109
g6
I1
sg7
S'7.7993011811'
p110
sg9
g52
sg11
(dp111
sbssbsS'Sports Wedding Convention Leisure Group Youth Group Costco Standalone Bus Room Based Bus'
p112
g0
(g1
g2
Ntp113
Rp114
(dp115
g6
I1
sg7
S'Node'
p116
sg9
S'Sports Wedding Convention Leisure Group Youth Group Costco Standalone Bus Room Based Bus'
p117
sg11
(dp118
g34
g0
(g1
g2
Ntp119
Rp120
(dp121
g6
I1
sg7
S'2.15307086614'
p122
sg9
g34
sg11
(dp123
sbsg40
g0
(g1
g2
Ntp124
Rp125
(dp126
g6
I1
sg7
S'4.71108486439'
p127
sg9
g40
sg11
(dp128
sbsg46
g0
(g1
g2
Ntp129
Rp130
(dp131
g6
I1
sg7
S'1.95230314961'
p132
sg9
g46
sg11
(dp133
sbsg52
g0
(g1
g2
Ntp134
Rp135
(dp136
g6
I1
sg7
S'7.81651465442'
p137
sg9
g52
sg11
(dp138
sbssbsS'Distribution Channel How'
p139
g0
(g1
g2
Ntp140
Rp141
(dp142
g6
I1
sg7
S'Node'
p143
sg9
S'Distribution Channel How'
p144
sg11
(dp145
g34
g0
(g1
g2
Ntp146
Rp147
(dp148
g6
I1
sg7
S'0.572200349956'
p149
sg9
g34
sg11
(dp150
sbsg40
g0
(g1
g2
Ntp151
Rp152
(dp153
g6
I1
sg7
S'4.12356955381'
p154
sg9
g40
sg11
(dp155
sbsg46
g0
(g1
g2
Ntp156
Rp157
(dp158
g6
I1
sg7
S'1.88664807524'
p159
sg9
g46
sg11
(dp160
sbsg52
g0
(g1
g2
Ntp161
Rp162
(dp163
g6
I1
sg7
S'0.317672790901'
p164
sg9
g52
sg11
(dp165
sbssbsS'Any'
p166
g0
(g1
g2
Ntp167
Rp168
(dp169
g6
I2
sg7
S'Node'
p170
sg9
S'Any'
p171
sg11
(dp172
g34
g0
(g1
g2
Ntp173
Rp174
(dp175
g6
I2
sg7
S'0.336604330709'
p176
sg9
g34
sg11
(dp177
sbsg40
g0
(g1
g2
Ntp178
Rp179
(dp180
g6
I2
sg7
S'4.820082021'
p181
sg9
g40
sg11
(dp182
sbsg46
g0
(g1
g2
Ntp183
Rp184
(dp185
g6
I2
sg7
S'1.5963812336'
p186
sg9
g46
sg11
(dp187
sbsg52
g0
(g1
g2
Ntp188
Rp189
(dp190
g6
I2
sg7
S'5.41666666667'
p191
sg9
g52
sg11
(dp192
sbssbsS'Direct Client'
p193
g0
(g1
g2
Ntp194
Rp195
(dp196
g6
I1
sg7
S'Node'
p197
sg9
S'Direct Client'
p198
sg11
(dp199
g34
g0
(g1
g2
Ntp200
Rp201
(dp202
g6
I1
sg7
S'0.336604330709'
p203
sg9
g34
sg11
(dp204
sbsg40
g0
(g1
g2
Ntp205
Rp206
(dp207
g6
I1
sg7
S'4.79441819773'
p208
sg9
g40
sg11
(dp209
sbsg46
g0
(g1
g2
Ntp210
Rp211
(dp212
g6
I1
sg7
S'1.5963812336'
p213
sg9
g46
sg11
(dp214
sbsg52
g0
(g1
g2
Ntp215
Rp216
(dp217
g6
I1
sg7
S'2.98188429571'
p218
sg9
g52
sg11
(dp219
sbssbsS'Call Center Internet 3 rd  Party  Integration Walk In'
p220
g0
(g1
g2
Ntp221
Rp222
(dp223
g6
I1
sg7
S'Node'
p224
sg9
S'Call Center Internet 3 rd  Party  Integration Walk In'
p225
sg11
(dp226
g34
g0
(g1
g2
Ntp227
Rp228
(dp229
g6
I1
sg7
S'2.15307086614'
p230
sg9
g34
sg11
(dp231
sbsg40
g0
(g1
g2
Ntp232
Rp233
(dp234
g6
I1
sg7
S'4.69576990376'
p235
sg9
g40
sg11
(dp236
sbsg46
g0
(g1
g2
Ntp237
Rp238
(dp239
g6
I1
sg7
S'1.95230314961'
p240
sg9
g46
sg11
(dp241
sbsg52
g0
(g1
g2
Ntp242
Rp243
(dp244
g6
I1
sg7
S'0.26594816273'
p245
sg9
g52
sg11
(dp246
sbssbsS'WDW'
p247
g0
(g1
g2
Ntp248
Rp249
(dp250
g6
I1
sg7
S'Node'
p251
sg9
S'WDW'
p252
sg11
(dp253
g34
g0
(g1
g2
Ntp254
Rp255
(dp256
g6
I1
sg7
S'0.419115266842'
p257
sg9
g34
sg11
(dp258
sbsg40
g0
(g1
g2
Ntp259
Rp260
(dp261
g6
I1
sg7
S'2.72166010499'
p262
sg9
g40
sg11
(dp263
sbsg46
g0
(g1
g2
Ntp264
Rp265
(dp266
g6
I1
sg7
S'1.25694663167'
p267
sg9
g46
sg11
(dp268
sbsg52
g0
(g1
g2
Ntp269
Rp270
(dp271
g6
I1
sg7
S'1.45034230096'
p272
sg9
g52
sg11
(dp273
sbssbsS'Legend'
p274
g0
(g1
g2
Ntp275
Rp276
(dp277
g6
I1
sg7
S'Node'
p278
sg9
S'Legend'
p279
sg11
(dp280
g34
g0
(g1
g2
Ntp281
Rp282
(dp283
g6
I1
sg7
S'0.286100174978'
p284
sg9
g34
sg11
(dp285
sbsg40
g0
(g1
g2
Ntp286
Rp287
(dp288
g6
I1
sg7
S'0.796865704287'
p289
sg9
g40
sg11
(dp290
sbsg46
g0
(g1
g2
Ntp291
Rp292
(dp293
g6
I1
sg7
S'0.766818678915'
p294
sg9
g46
sg11
(dp295
sbsg52
g0
(g1
g2
Ntp296
Rp297
(dp298
g6
I1
sg7
S'7.81651465442'
p299
sg9
g52
sg11
(dp300
sbssbsS'Sce na rio 1'
p301
g0
(g1
g2
Ntp302
Rp303
(dp304
g6
I1
sg7
S'Node'
p305
sg9
S'Sce na rio 1'
p306
sg11
(dp307
g34
g0
(g1
g2
Ntp308
Rp309
(dp310
g6
I1
sg7
S'0.248491907262'
p311
sg9
g34
sg11
(dp312
sbsg40
g0
(g1
g2
Ntp313
Rp314
(dp315
g6
I1
sg7
S'0.804442257218'
p316
sg9
g40
sg11
(dp317
sbsg46
g0
(g1
g2
Ntp318
Rp319
(dp320
g6
I1
sg7
S'0.874316491689'
p321
sg9
g46
sg11
(dp322
sbsg52
g0
(g1
g2
Ntp323
Rp324
(dp325
g6
I1
sg7
S'8.71329724409'
p326
sg9
g52
sg11
(dp327
sbssbsS'WDTC'
p328
g0
(g1
g2
Ntp329
Rp330
(dp331
g6
I1
sg7
S'Node'
p332
sg9
S'WDTC'
p333
sg11
(dp334
g34
g0
(g1
g2
Ntp335
Rp336
(dp337
g6
I1
sg7
S'0.419115266842'
p338
sg9
g34
sg11
(dp339
sbsg40
g0
(g1
g2
Ntp340
Rp341
(dp342
g6
I1
sg7
S'1.44576881015'
p343
sg9
g40
sg11
(dp344
sbsg46
g0
(g1
g2
Ntp345
Rp346
(dp347
g6
I1
sg7
S'1.25694663167'
p348
sg9
g46
sg11
(dp349
sbsg52
g0
(g1
g2
Ntp350
Rp351
(dp352
g6
I1
sg7
S'1.45034230096'
p353
sg9
g52
sg11
(dp354
sbssbsS'Internet'
p355
g0
(g1
g2
Ntp356
Rp357
(dp358
g6
I1
sg7
S'Node'
p359
sg9
S'Internet'
p360
sg11
(dp361
g34
g0
(g1
g2
Ntp362
Rp363
(dp364
g6
I1
sg7
S'0.336604330709'
p365
sg9
g34
sg11
(dp366
sbsg40
g0
(g1
g2
Ntp367
Rp368
(dp369
g6
I1
sg7
S'4.79441819773'
p370
sg9
g40
sg11
(dp371
sbsg46
g0
(g1
g2
Ntp372
Rp373
(dp374
g6
I1
sg7
S'1.5963812336'
p375
sg9
g46
sg11
(dp376
sbsg52
g0
(g1
g2
Ntp377
Rp378
(dp379
g6
I1
sg7
S'0.486952099738'
p380
sg9
g52
sg11
(dp381
sbssbsS'Client Group Who'
p382
g0
(g1
g2
Ntp383
Rp384
(dp385
g6
I1
sg7
S'Node'
p386
sg9
S'Client Group Who'
p387
sg11
(dp388
g34
g0
(g1
g2
Ntp389
Rp390
(dp391
g6
I1
sg7
S'0.572200349956'
p392
sg9
g34
sg11
(dp393
sbsg40
g0
(g1
g2
Ntp394
Rp395
(dp396
g6
I1
sg7
S'4.12356955381'
p397
sg9
g40
sg11
(dp398
sbsg46
g0
(g1
g2
Ntp399
Rp400
(dp401
g6
I1
sg7
S'1.22924978128'
p402
sg9
g46
sg11
(dp403
sbsg52
g0
(g1
g2
Ntp404
Rp405
(dp406
g6
I1
sg7
S'3.18411417323'
p407
sg9
g52
sg11
(dp408
sbssbsS'US Asia Japan UK Eastern Europe Latin  America'
p409
g0
(g1
g2
Ntp410
Rp411
(dp412
g6
I1
sg7
S'Node'
p413
sg9
S'US Asia Japan UK Eastern Europe Latin  America'
p414
sg11
(dp415
g34
g0
(g1
g2
Ntp416
Rp417
(dp418
g6
I1
sg7
S'2.15307086614'
p419
sg9
g34
sg11
(dp420
sbsg40
g0
(g1
g2
Ntp421
Rp422
(dp423
g6
I1
sg7
S'4.69699584427'
p424
sg9
g40
sg11
(dp425
sbsg46
g0
(g1
g2
Ntp426
Rp427
(dp428
g6
I1
sg7
S'1.95230314961'
p429
sg9
g46
sg11
(dp430
sbsg52
g0
(g1
g2
Ntp431
Rp432
(dp433
g6
I1
sg7
S'5.26085629921'
p434
sg9
g52
sg11
(dp435
sbssbsS'COMPANY'
p436
g0
(g1
g2
Ntp437
Rp438
(dp439
g6
I1
sg7
S'Node'
p440
sg9
S'COMPANY'
p441
sg11
(dp442
g34
g0
(g1
g2
Ntp443
Rp444
(dp445
g6
I1
sg7
S'0.695768810149'
p446
sg9
g34
sg11
(dp447
sbsg40
g0
(g1
g2
Ntp448
Rp449
(dp450
g6
I1
sg7
S'1.25'
p451
sg9
g40
sg11
(dp452
sbsg46
g0
(g1
g2
Ntp453
Rp454
(dp455
g6
I1
sg7
S'9.38767060367'
p456
sg9
g46
sg11
(dp457
sbsg52
g0
(g1
g2
Ntp458
Rp459
(dp460
g6
I1
sg7
S'0.265949256343'
p461
sg9
g52
sg11
(dp462
sbssbsS'Source Market  Country'
p463
g0
(g1
g2
Ntp464
Rp465
(dp466
g6
I1
sg7
S'Node'
p467
sg9
S'Source Market  Country'
p468
sg11
(dp469
g34
g0
(g1
g2
Ntp470
Rp471
(dp472
g6
I1
sg7
S'0.572200349956'
p473
sg9
g34
sg11
(dp474
sbsg40
g0
(g1
g2
Ntp475
Rp476
(dp477
g6
I1
sg7
S'4.12356846019'
p478
sg9
g40
sg11
(dp479
sbsg46
g0
(g1
g2
Ntp480
Rp481
(dp482
g6
I1
sg7
S'1.44312335958'
p483
sg9
g46
sg11
(dp484
sbsg52
g0
(g1
g2
Ntp485
Rp486
(dp487
g6
I1
sg7
S'5.53122047244'
p488
sg9
g52
sg11
(dp489
sbssbssbsS'6.Option 2  DLP Company to Division Mapping'
p490
g0
(g1
g2
Ntp491
Rp492
(dp493
g6
I1
sg7
S'Slide'
p494
sg9
S'6.Option 2  DLP Company to Division Mapping'
p495
sg11
(dp496
sbsS'4.Option 2  WDW Company to Division Mapping'
p497
g0
(g1
g2
Ntp498
Rp499
(dp500
g6
I1
sg7
S'Slide'
p501
sg9
S'4.Option 2  WDW Company to Division Mapping'
p502
sg11
(dp503
sbsS'2.Option 1  Company to Division Mapping'
p504
g0
(g1
g2
Ntp505
Rp506
(dp507
g6
I1
sg7
S'Slide'
p508
sg9
S'2.Option 1  Company to Division Mapping'
p509
sg11
(dp510
sbsS'3.Option 2  ALL Company to Division Mapping'
p511
g0
(g1
g2
Ntp512
Rp513
(dp514
g6
I1
sg7
S'Slide'
p515
sg9
S'3.Option 2  ALL Company to Division Mapping'
p516
sg11
(dp517
sbsS'7.Training Exercise Site Assignment'
p518
g0
(g1
g2
Ntp519
Rp520
(dp521
g6
I1
sg7
S'Slide'
p522
sg9
S'7.Training Exercise Site Assignment'
p523
sg11
(dp524
sbssb.