ccopy_reg
_reconstructor
p0
(cnl_lib.Concepts
Concepts
p1
c__builtin__
object
p2
Ntp3
Rp4
(dp5
S'count'
p6
I1
sS'typeName'
p7
S'Relations'
p8
sS'name'
p9
S'Application'
p10
sS'cd'
p11
(dp12
S'1.Built from Usersmorrj140DocumentsSolutionEngineeringArchimate ModelsCodeGenv23archimate on 20141810230004'
p13
g0
(g1
g2
Ntp14
Rp15
(dp16
g6
I1
sg7
S'Slide'
p17
sg9
S'1.Built from Usersmorrj140DocumentsSolutionEngineeringArchimate ModelsCodeGenv23archimate on 20141810230004'
p18
sg11
(dp19
sbsS'2.Fulfillment BELA'
p20
g0
(g1
g2
Ntp21
Rp22
(dp23
g6
I1
sg7
S'Slide'
p24
sg9
S'2.Fulfillment BELA'
p25
sg11
(dp26
sbssb.