ccopy_reg
_reconstructor
p0
(cnl_lib.Concepts
Concepts
p1
c__builtin__
object
p2
Ntp3
Rp4
(dp5
S'count'
p6
I1
sS'typeName'
p7
S'Relations'
p8
sS'name'
p9
S'Application'
p10
sS'cd'
p11
(dp12
S'Payment Platform '
p13
g0
(g1
g2
Ntp14
Rp15
(dp16
g6
I18
sg7
S'Source'
p17
sg9
S'Payment Platform '
p18
sg11
(dp19
S'Hertz & Alamo '
p20
g0
(g1
g2
Ntp21
Rp22
(dp23
g6
I9
sg7
S'Target'
p24
sg9
S'Hertz & Alamo '
p25
sg11
(dp26
sbsS'ABS/DC '
p27
g0
(g1
g2
Ntp28
Rp29
(dp30
g6
I9
sg7
S'Target'
p31
sg9
S'ABS/DC '
p32
sg11
(dp33
sbssbsS'HROS '
p34
g0
(g1
g2
Ntp35
Rp36
(dp37
g6
I20
sg7
S'Source'
p38
sg9
S'HROS '
p39
sg11
(dp40
S'PVC Cache '
p41
g0
(g1
g2
Ntp42
Rp43
(dp44
g6
I8
sg7
S'Target'
p45
sg9
S'PVC Cache '
p46
sg11
(dp47
sbsS'Dreams '
p48
g0
(g1
g2
Ntp49
Rp50
(dp51
g6
I12
sg7
S'Target'
p52
sg9
S'Dreams '
p53
sg11
(dp54
sbssbsS'Direct Connect '
p55
g0
(g1
g2
Ntp56
Rp57
(dp58
g6
I16
sg7
S'Source'
p59
sg9
S'Direct Connect '
p60
sg11
(dp61
S'EAI '
p62
g0
(g1
g2
Ntp63
Rp64
(dp65
g6
I12
sg7
S'Target'
p66
sg9
S'EAI '
p67
sg11
(dp68
sbsS'LILO '
p69
g0
(g1
g2
Ntp70
Rp71
(dp72
g6
I4
sg7
S'Target'
p73
sg9
S'LILO '
p74
sg11
(dp75
sbssbsS'Passkey UI '
p76
g0
(g1
g2
Ntp77
Rp78
(dp79
g6
I10
sg7
S'Source'
p80
sg9
S'Passkey UI '
p81
sg11
(dp82
S'ABS/DC '
p83
g0
(g1
g2
Ntp84
Rp85
(dp86
g6
I10
sg7
S'Target'
p87
sg9
S'ABS/DC '
p88
sg11
(dp89
sbssbsS'EAI '
p90
g0
(g1
g2
Ntp91
Rp92
(dp93
g6
I9
sg7
S'Source'
p94
sg9
S'EAI '
p95
sg11
(dp96
S'LMS '
p97
g0
(g1
g2
Ntp98
Rp99
(dp100
g6
I9
sg7
S'Target'
p101
sg9
S'LMS '
p102
sg11
(dp103
sbssbsS'Dreams '
p104
g0
(g1
g2
Ntp105
Rp106
(dp107
g6
I37
sg7
S'Source'
p108
sg9
S'Dreams '
p109
sg11
(dp110
S'One View '
p111
g0
(g1
g2
Ntp112
Rp113
(dp114
g6
I5
sg7
S'Target'
p115
sg9
S'One View '
p116
sg11
(dp117
sbsS'PVC Cache '
p118
g0
(g1
g2
Ntp119
Rp120
(dp121
g6
I8
sg7
S'Target'
p122
sg9
S'PVC Cache '
p123
sg11
(dp124
sbsS'LMS '
p125
g0
(g1
g2
Ntp126
Rp127
(dp128
g6
I6
sg7
S'Target'
p129
sg9
S'LMS '
p130
sg11
(dp131
sbsS'EAI '
p132
g0
(g1
g2
Ntp133
Rp134
(dp135
g6
I13
sg7
S'Target'
p136
sg9
S'EAI '
p137
sg11
(dp138
sbsS'External Sales Partners '
p139
g0
(g1
g2
Ntp140
Rp141
(dp142
g6
I5
sg7
S'Target'
p143
sg9
S'External Sales Partners '
p144
sg11
(dp145
sbssbsS'One Source '
p146
g0
(g1
g2
Ntp147
Rp148
(dp149
g6
I12
sg7
S'Source'
p150
sg9
S'One Source '
p151
sg11
(dp152
S'ABS/DC '
p153
g0
(g1
g2
Ntp154
Rp155
(dp156
g6
I4
sg7
S'Target'
p157
sg9
S'ABS/DC '
p158
sg11
(dp159
sbsS'LMS '
p160
g0
(g1
g2
Ntp161
Rp162
(dp163
g6
I4
sg7
S'Target'
p164
sg9
S'LMS '
p165
sg11
(dp166
sbsS'LILO '
p167
g0
(g1
g2
Ntp168
Rp169
(dp170
g6
I4
sg7
S'Target'
p171
sg9
S'LILO '
p172
sg11
(dp173
sbssbsS'LMS '
p174
g0
(g1
g2
Ntp175
Rp176
(dp177
g6
I46
sg7
S'Source'
p178
sg9
S'LMS '
p179
sg11
(dp180
S'LILO '
p181
g0
(g1
g2
Ntp182
Rp183
(dp184
g6
I12
sg7
S'Target'
p185
sg9
S'LILO '
p186
sg11
(dp187
sbsS'Travel Box '
p188
g0
(g1
g2
Ntp189
Rp190
(dp191
g6
I6
sg7
S'Target'
p192
sg9
S'Travel Box '
p193
sg11
(dp194
sbsS'Segment Services '
p195
g0
(g1
g2
Ntp196
Rp197
(dp198
g6
I12
sg7
S'Target'
p199
sg9
S'Segment Services '
p200
sg11
(dp201
sbsS'Bank of America '
p202
g0
(g1
g2
Ntp203
Rp204
(dp205
g6
I16
sg7
S'Target'
p206
sg9
S'Bank of America '
p207
sg11
(dp208
sbssbsS'LILO '
p209
g0
(g1
g2
Ntp210
Rp211
(dp212
g6
I5
sg7
S'Source'
p213
sg9
S'LILO '
p214
sg11
(dp215
S'CCRM '
p216
g0
(g1
g2
Ntp217
Rp218
(dp219
g6
I5
sg7
S'Target'
p220
sg9
S'CCRM '
p221
sg11
(dp222
sbssbsS'Asset Hub '
p223
g0
(g1
g2
Ntp224
Rp225
(dp226
g6
I1
sg7
S'Source'
p227
sg9
S'Asset Hub '
p228
sg11
(dp229
S'LILO '
p230
g0
(g1
g2
Ntp231
Rp232
(dp233
g6
I1
sg7
S'Target'
p234
sg9
S'LILO '
p235
sg11
(dp236
sbssbsS'Hertz & Alamo '
p237
g0
(g1
g2
Ntp238
Rp239
(dp240
g6
I23
sg7
S'Source'
p241
sg9
S'Hertz & Alamo '
p242
sg11
(dp243
S'Dreams '
p244
g0
(g1
g2
Ntp245
Rp246
(dp247
g6
I6
sg7
S'Target'
p248
sg9
S'Dreams '
p249
sg11
(dp250
sbsS'EAI '
p251
g0
(g1
g2
Ntp252
Rp253
(dp254
g6
I9
sg7
S'Target'
p255
sg9
S'EAI '
p256
sg11
(dp257
sbsS'Bank of America '
p258
g0
(g1
g2
Ntp259
Rp260
(dp261
g6
I8
sg7
S'Target'
p262
sg9
S'Bank of America '
p263
sg11
(dp264
sbssbsS'Amadeus '
p265
g0
(g1
g2
Ntp266
Rp267
(dp268
g6
I7
sg7
S'Source'
p269
sg9
S'Amadeus '
p270
sg11
(dp271
S'One View '
p272
g0
(g1
g2
Ntp273
Rp274
(dp275
g6
I6
sg7
S'Target'
p276
sg9
S'One View '
p277
sg11
(dp278
sbsS'External Sales Partners '
p279
g0
(g1
g2
Ntp280
Rp281
(dp282
g6
I1
sg7
S'Target'
p283
sg9
S'External Sales Partners '
p284
sg11
(dp285
sbssbsS'Fax Server '
p286
g0
(g1
g2
Ntp287
Rp288
(dp289
g6
I3
sg7
S'Source'
p290
sg9
S'Fax Server '
p291
sg11
(dp292
S'LILO '
p293
g0
(g1
g2
Ntp294
Rp295
(dp296
g6
I3
sg7
S'Target'
p297
sg9
S'LILO '
p298
sg11
(dp299
sbssbsS'Pkg  Mapper '
p300
g0
(g1
g2
Ntp301
Rp302
(dp303
g6
I2
sg7
S'Source'
p304
sg9
S'Pkg  Mapper '
p305
sg11
(dp306
S'LILO '
p307
g0
(g1
g2
Ntp308
Rp309
(dp310
g6
I2
sg7
S'Target'
p311
sg9
S'LILO '
p312
sg11
(dp313
sbssbsS'Offsite Hotels '
p314
g0
(g1
g2
Ntp315
Rp316
(dp317
g6
I4
sg7
S'Source'
p318
sg9
S'Offsite Hotels '
p319
sg11
(dp320
S'Harte Hanks '
p321
g0
(g1
g2
Ntp322
Rp323
(dp324
g6
I2
sg7
S'Target'
p325
sg9
S'Harte Hanks '
p326
sg11
(dp327
sbsS'Recommender Adapter '
p328
g0
(g1
g2
Ntp329
Rp330
(dp331
g6
I2
sg7
S'Target'
p332
sg9
S'Recommender Adapter '
p333
sg11
(dp334
sbssbsS'Harte Hanks '
p335
g0
(g1
g2
Ntp336
Rp337
(dp338
g6
I3
sg7
S'Source'
p339
sg9
S'Harte Hanks '
p340
sg11
(dp341
S'LILO '
p342
g0
(g1
g2
Ntp343
Rp344
(dp345
g6
I3
sg7
S'Target'
p346
sg9
S'LILO '
p347
sg11
(dp348
sbssbsS'Recommender Adapter '
p349
g0
(g1
g2
Ntp350
Rp351
(dp352
g6
I6
sg7
S'Source'
p353
sg9
S'Recommender Adapter '
p354
sg11
(dp355
S'Dreams '
p356
g0
(g1
g2
Ntp357
Rp358
(dp359
g6
I6
sg7
S'Target'
p360
sg9
S'Dreams '
p361
sg11
(dp362
sbssbsS'Arroweye '
p363
g0
(g1
g2
Ntp364
Rp365
(dp366
g6
I3
sg7
S'Source'
p367
sg9
S'Arroweye '
p368
sg11
(dp369
S'LILO '
p370
g0
(g1
g2
Ntp371
Rp372
(dp373
g6
I3
sg7
S'Target'
p374
sg9
S'LILO '
p375
sg11
(dp376
sbssbsS'One View '
p377
g0
(g1
g2
Ntp378
Rp379
(dp380
g6
I2
sg7
S'Source'
p381
sg9
S'One View '
p382
sg11
(dp383
S'Hertz & Alamo '
p384
g0
(g1
g2
Ntp385
Rp386
(dp387
g6
I1
sg7
S'Target'
p388
sg9
S'Hertz & Alamo '
p389
sg11
(dp390
sbsS'ABS/DC '
p391
g0
(g1
g2
Ntp392
Rp393
(dp394
g6
I1
sg7
S'Target'
p395
sg9
S'ABS/DC '
p396
sg11
(dp397
sbssbsS'Dreams UI '
p398
g0
(g1
g2
Ntp399
Rp400
(dp401
g6
I6
sg7
S'Source'
p402
sg9
S'Dreams UI '
p403
sg11
(dp404
S'EAI '
p405
g0
(g1
g2
Ntp406
Rp407
(dp408
g6
I6
sg7
S'Target'
p409
sg9
S'EAI '
p410
sg11
(dp411
sbssbsS'External Sales Partners '
p412
g0
(g1
g2
Ntp413
Rp414
(dp415
g6
I6
sg7
S'Source'
p416
sg9
S'External Sales Partners '
p417
sg11
(dp418
S'SBC '
p419
g0
(g1
g2
Ntp420
Rp421
(dp422
g6
I6
sg7
S'Target'
p423
sg9
S'SBC '
p424
sg11
(dp425
sbssbsS'Product Hub '
p426
g0
(g1
g2
Ntp427
Rp428
(dp429
g6
I1
sg7
S'Source'
p430
sg9
S'Product Hub '
p431
sg11
(dp432
S'LILO '
p433
g0
(g1
g2
Ntp434
Rp435
(dp436
g6
I1
sg7
S'Target'
p437
sg9
S'LILO '
p438
sg11
(dp439
sbssbsS'SBC '
p440
g0
(g1
g2
Ntp441
Rp442
(dp443
g6
I10
sg7
S'Source'
p444
sg9
S'SBC '
p445
sg11
(dp446
S'Order Bridge '
p447
g0
(g1
g2
Ntp448
Rp449
(dp450
g6
I6
sg7
S'Target'
p451
sg9
S'Order Bridge '
p452
sg11
(dp453
sbsS'Segment Services '
p454
g0
(g1
g2
Ntp455
Rp456
(dp457
g6
I4
sg7
S'Target'
p458
sg9
S'Segment Services '
p459
sg11
(dp460
sbssbsS'Data Warehouse '
p461
g0
(g1
g2
Ntp462
Rp463
(dp464
g6
I19
sg7
S'Source'
p465
sg9
S'Data Warehouse '
p466
sg11
(dp467
S'Data Warehouse '
p468
g0
(g1
g2
Ntp469
Rp470
(dp471
g6
I11
sg7
S'Target'
p472
sg9
S'Data Warehouse '
p473
sg11
(dp474
sbsS'EAI '
p475
g0
(g1
g2
Ntp476
Rp477
(dp478
g6
I8
sg7
S'Target'
p479
sg9
S'EAI '
p480
sg11
(dp481
sbssbsS'Pricing '
p482
g0
(g1
g2
Ntp483
Rp484
(dp485
g6
I1
sg7
S'Source'
p486
sg9
S'Pricing '
p487
sg11
(dp488
S'LILO '
p489
g0
(g1
g2
Ntp490
Rp491
(dp492
g6
I1
sg7
S'Target'
p493
sg9
S'LILO '
p494
sg11
(dp495
sbssbsS'ABS/DC '
p496
g0
(g1
g2
Ntp497
Rp498
(dp499
g6
I40
sg7
S'Source'
p500
sg9
S'ABS/DC '
p501
sg11
(dp502
S'Dreams UI '
p503
g0
(g1
g2
Ntp504
Rp505
(dp506
g6
I10
sg7
S'Target'
p507
sg9
S'Dreams UI '
p508
sg11
(dp509
sbsS'Hertz & Alamo '
p510
g0
(g1
g2
Ntp511
Rp512
(dp513
g6
I10
sg7
S'Target'
p514
sg9
S'Hertz & Alamo '
p515
sg11
(dp516
sbsS'DVC Corp '
p517
g0
(g1
g2
Ntp518
Rp519
(dp520
g6
I5
sg7
S'Target'
p521
sg9
S'DVC Corp '
p522
sg11
(dp523
sbsS'Amadeus '
p524
g0
(g1
g2
Ntp525
Rp526
(dp527
g6
I5
sg7
S'Target'
p528
sg9
S'Amadeus '
p529
sg11
(dp530
sbsS'Dreams '
p531
g0
(g1
g2
Ntp532
Rp533
(dp534
g6
I10
sg7
S'Target'
p535
sg9
S'Dreams '
p536
sg11
(dp537
sbssbssb.